

Microchip MPLAB XC8 Assembler V2.41 build 20230208172133 
                                                                                               Mon Jul 17 16:32:41 2023

Microchip MPLAB XC8 C Compiler v2.41 (Free license) build 20230208172133 Og1 
     1                           	processor	16F18854
     2                           	pagewidth 120
     3                           	opt	flic
     4                           	psect	stringtext1,global,class=STRCODE,delta=2,noexec
     5                           	psect	stringtext2,global,class=STRCODE,delta=2,noexec
     6                           	psect	stringtext3,global,class=STRCODE,delta=2,noexec
     7                           	psect	nvBANK0,global,class=BANK0,space=1,delta=1,noexec
     8                           	psect	cinit,global,class=CODE,merge=1,delta=2
     9                           	psect	bssCOMMON,global,class=COMMON,space=1,delta=1,noexec
    10                           	psect	bssBANK0,global,class=BANK0,space=1,delta=1,noexec
    11                           	psect	cstackCOMMON,global,class=COMMON,space=1,delta=1,noexec
    12                           	psect	cstackBANK0,global,class=BANK0,space=1,delta=1,noexec
    13                           	psect	maintext,global,class=CODE,merge=1,split=1,delta=2
    14                           	psect	text1,local,class=CODE,merge=1,delta=2
    15                           	psect	text2,local,class=CODE,merge=1,delta=2
    16                           	psect	text3,local,class=CODE,merge=1,delta=2
    17                           	psect	text4,local,class=CODE,merge=1,delta=2,group=1
    18                           	psect	text5,local,class=CODE,merge=1,delta=2,group=1
    19                           	psect	text6,local,class=CODE,merge=1,delta=2
    20                           	psect	text7,local,class=CODE,merge=1,delta=2
    21                           	psect	text8,local,class=CODE,merge=1,delta=2
    22                           	psect	intentry,global,class=CODE,delta=2
    23                           	psect	text10,local,class=CODE,merge=1,delta=2
    24                           	psect	text11,local,class=CODE,merge=1,delta=2
    25                           	psect	text12,local,class=CODE,merge=1,delta=2
    26                           	psect	text13,local,class=CODE,merge=1,delta=2
    27                           	psect	text14,local,class=CODE,merge=1,delta=2
    28                           	psect	text15,local,class=CODE,merge=1,delta=2
    29                           	psect	config,global,abs,ovrld,class=CONFIG,space=4,delta=2,noexec
    30                           	dabs	1,0x7E,2
    31     0000                     
    32                           ; Generated 22/03/2023 GMT
    33                           ; 
    34                           ; Copyright © 2023, Microchip Technology Inc. and its subsidiaries ("Microchip")
    35                           ; All rights reserved.
    36                           ; 
    37                           ; This software is developed by Microchip Technology Inc. and its subsidiaries ("Microch
      +                          ip").
    38                           ; 
    39                           ; Redistribution and use in source and binary forms, with or without modification, are
    40                           ; permitted provided that the following conditions are met:
    41                           ; 
    42                           ;     1. Redistributions of source code must retain the above copyright notice, this lis
      +                          t of
    43                           ;        conditions and the following disclaimer.
    44                           ; 
    45                           ;     2. Redistributions in binary form must reproduce the above copyright notice, this 
      +                          list
    46                           ;        of conditions and the following disclaimer in the documentation and/or other
    47                           ;        materials provided with the distribution. Publication is not required when
    48                           ;        this file is used in an embedded application.
    49                           ; 
    50                           ;     3. Microchip's name may not be used to endorse or promote products derived from th
      +                          is
    51                           ;        software without specific prior written permission.
    52                           ; 
    53                           ; THIS SOFTWARE IS PROVIDED BY MICROCHIP "AS IS" AND ANY EXPRESS OR IMPLIED WARRANTIES,
    54                           ; INCLUDING, BUT NOT LIMITED TO, THE IMPLIED WARRANTIES OF MERCHANTABILITY AND FITNESS F
      +                          OR
    55                           ; PURPOSE ARE DISCLAIMED.  IN NO EVENT SHALL MICROCHIP BE LIABLE FOR ANY DIRECT, INDIREC
      +                          T,
    56                           ; INCIDENTAL, SPECIAL, EXEMPLARY, OR CONSEQUENTIAL DAMAGES (INCLUDING BUT NOT LIMITED TO
    57                           ; PROCUREMENT OF SUBSTITUTE GOODS OR SERVICES; LOSS OF USE, DATA OR PROFITS; OR BUSINESS
    58                           ; INTERRUPTION) HOWSOEVER CAUSED AND ON ANY THEORY OF LIABILITY, WHETHER IN CONTRACT, ST
      +                          RICT
    59                           ; LIABILITY, OR TORT (INCLUDING NEGLIGENCE OR OTHERWISE) ARISING IN ANY WAY OUT OF THE U
      +                          SE OF
    60                           ; THIS SOFTWARE, EVEN IF ADVISED OF THE POSSIBILITY OF SUCH DAMAGE.
    61                           ; 
    62                           ; 
    63                           ; Code-generator required, PIC16F18854 Definitions
    64                           ; 
    65                           ; SFR Addresses
    66     0000                     	;# 
    67     0001                     	;# 
    68     0002                     	;# 
    69     0003                     	;# 
    70     0004                     	;# 
    71     0005                     	;# 
    72     0006                     	;# 
    73     0007                     	;# 
    74     0008                     	;# 
    75     0009                     	;# 
    76     000A                     	;# 
    77     000B                     	;# 
    78     000C                     	;# 
    79     000D                     	;# 
    80     000E                     	;# 
    81     0010                     	;# 
    82     0011                     	;# 
    83     0012                     	;# 
    84     0013                     	;# 
    85     0016                     	;# 
    86     0017                     	;# 
    87     0018                     	;# 
    88     001C                     	;# 
    89     001C                     	;# 
    90     001D                     	;# 
    91     001D                     	;# 
    92     001E                     	;# 
    93     001F                     	;# 
    94     008C                     	;# 
    95     008C                     	;# 
    96     008D                     	;# 
    97     008E                     	;# 
    98     008E                     	;# 
    99     008F                     	;# 
   100     0090                     	;# 
   101     0090                     	;# 
   102     0091                     	;# 
   103     0093                     	;# 
   104     0094                     	;# 
   105     0095                     	;# 
   106     0096                     	;# 
   107     0097                     	;# 
   108     0098                     	;# 
   109     0099                     	;# 
   110     009A                     	;# 
   111     009B                     	;# 
   112     009C                     	;# 
   113     009D                     	;# 
   114     009E                     	;# 
   115     010C                     	;# 
   116     010D                     	;# 
   117     010E                     	;# 
   118     010E                     	;# 
   119     010F                     	;# 
   120     0110                     	;# 
   121     0110                     	;# 
   122     0111                     	;# 
   123     0112                     	;# 
   124     0112                     	;# 
   125     0113                     	;# 
   126     0114                     	;# 
   127     0114                     	;# 
   128     0115                     	;# 
   129     0116                     	;# 
   130     0116                     	;# 
   131     0117                     	;# 
   132     0119                     	;# 
   133     0119                     	;# 
   134     0119                     	;# 
   135     011A                     	;# 
   136     011A                     	;# 
   137     011A                     	;# 
   138     011B                     	;# 
   139     011B                     	;# 
   140     011B                     	;# 
   141     011B                     	;# 
   142     011B                     	;# 
   143     011C                     	;# 
   144     011C                     	;# 
   145     011C                     	;# 
   146     011D                     	;# 
   147     011D                     	;# 
   148     011D                     	;# 
   149     011E                     	;# 
   150     011E                     	;# 
   151     011E                     	;# 
   152     011F                     	;# 
   153     011F                     	;# 
   154     011F                     	;# 
   155     011F                     	;# 
   156     011F                     	;# 
   157     018C                     	;# 
   158     018D                     	;# 
   159     018E                     	;# 
   160     018F                     	;# 
   161     0190                     	;# 
   162     0191                     	;# 
   163     0192                     	;# 
   164     0196                     	;# 
   165     0197                     	;# 
   166     0198                     	;# 
   167     0199                     	;# 
   168     019A                     	;# 
   169     019B                     	;# 
   170     019C                     	;# 
   171     020C                     	;# 
   172     020C                     	;# 
   173     020D                     	;# 
   174     020E                     	;# 
   175     020F                     	;# 
   176     020F                     	;# 
   177     0210                     	;# 
   178     0210                     	;# 
   179     0211                     	;# 
   180     0211                     	;# 
   181     0212                     	;# 
   182     0212                     	;# 
   183     0213                     	;# 
   184     0214                     	;# 
   185     0215                     	;# 
   186     0215                     	;# 
   187     0216                     	;# 
   188     0216                     	;# 
   189     0217                     	;# 
   190     0217                     	;# 
   191     0218                     	;# 
   192     0218                     	;# 
   193     0219                     	;# 
   194     021A                     	;# 
   195     021B                     	;# 
   196     021B                     	;# 
   197     021C                     	;# 
   198     021C                     	;# 
   199     021D                     	;# 
   200     021D                     	;# 
   201     021E                     	;# 
   202     021F                     	;# 
   203     028C                     	;# 
   204     028C                     	;# 
   205     028D                     	;# 
   206     028D                     	;# 
   207     028E                     	;# 
   208     028F                     	;# 
   209     0290                     	;# 
   210     0290                     	;# 
   211     0291                     	;# 
   212     0292                     	;# 
   213     0292                     	;# 
   214     0293                     	;# 
   215     0293                     	;# 
   216     0294                     	;# 
   217     0295                     	;# 
   218     0296                     	;# 
   219     0296                     	;# 
   220     0297                     	;# 
   221     0298                     	;# 
   222     0298                     	;# 
   223     0299                     	;# 
   224     0299                     	;# 
   225     029A                     	;# 
   226     029B                     	;# 
   227     029C                     	;# 
   228     029C                     	;# 
   229     029D                     	;# 
   230     030C                     	;# 
   231     030C                     	;# 
   232     030D                     	;# 
   233     030E                     	;# 
   234     030F                     	;# 
   235     0310                     	;# 
   236     0310                     	;# 
   237     0311                     	;# 
   238     0312                     	;# 
   239     0313                     	;# 
   240     0314                     	;# 
   241     0314                     	;# 
   242     0315                     	;# 
   243     0316                     	;# 
   244     0317                     	;# 
   245     0318                     	;# 
   246     0318                     	;# 
   247     0319                     	;# 
   248     031A                     	;# 
   249     031B                     	;# 
   250     031C                     	;# 
   251     031C                     	;# 
   252     031D                     	;# 
   253     031E                     	;# 
   254     031F                     	;# 
   255     038C                     	;# 
   256     038C                     	;# 
   257     038D                     	;# 
   258     038E                     	;# 
   259     0390                     	;# 
   260     0390                     	;# 
   261     0391                     	;# 
   262     0392                     	;# 
   263     040C                     	;# 
   264     040D                     	;# 
   265     040E                     	;# 
   266     040F                     	;# 
   267     0410                     	;# 
   268     0411                     	;# 
   269     0416                     	;# 
   270     0416                     	;# 
   271     0417                     	;# 
   272     0418                     	;# 
   273     0418                     	;# 
   274     0419                     	;# 
   275     041A                     	;# 
   276     041A                     	;# 
   277     041B                     	;# 
   278     041C                     	;# 
   279     041C                     	;# 
   280     041D                     	;# 
   281     041E                     	;# 
   282     041F                     	;# 
   283     048C                     	;# 
   284     048C                     	;# 
   285     048D                     	;# 
   286     048E                     	;# 
   287     048F                     	;# 
   288     048F                     	;# 
   289     0490                     	;# 
   290     0491                     	;# 
   291     0492                     	;# 
   292     0492                     	;# 
   293     0493                     	;# 
   294     0494                     	;# 
   295     0495                     	;# 
   296     0495                     	;# 
   297     0496                     	;# 
   298     0497                     	;# 
   299     0498                     	;# 
   300     0499                     	;# 
   301     049A                     	;# 
   302     049B                     	;# 
   303     049C                     	;# 
   304     049D                     	;# 
   305     050C                     	;# 
   306     050C                     	;# 
   307     050D                     	;# 
   308     050E                     	;# 
   309     050F                     	;# 
   310     050F                     	;# 
   311     0510                     	;# 
   312     0511                     	;# 
   313     0512                     	;# 
   314     0512                     	;# 
   315     0513                     	;# 
   316     0514                     	;# 
   317     0515                     	;# 
   318     0515                     	;# 
   319     0516                     	;# 
   320     0517                     	;# 
   321     0518                     	;# 
   322     0519                     	;# 
   323     051A                     	;# 
   324     051B                     	;# 
   325     051C                     	;# 
   326     051D                     	;# 
   327     058C                     	;# 
   328     058C                     	;# 
   329     058D                     	;# 
   330     058E                     	;# 
   331     058F                     	;# 
   332     058F                     	;# 
   333     0590                     	;# 
   334     0591                     	;# 
   335     0592                     	;# 
   336     0593                     	;# 
   337     060C                     	;# 
   338     060D                     	;# 
   339     060E                     	;# 
   340     060F                     	;# 
   341     0610                     	;# 
   342     0611                     	;# 
   343     0612                     	;# 
   344     0613                     	;# 
   345     0614                     	;# 
   346     0616                     	;# 
   347     0617                     	;# 
   348     0618                     	;# 
   349     0619                     	;# 
   350     061A                     	;# 
   351     061B                     	;# 
   352     061C                     	;# 
   353     061D                     	;# 
   354     061E                     	;# 
   355     068C                     	;# 
   356     068D                     	;# 
   357     068E                     	;# 
   358     068F                     	;# 
   359     0690                     	;# 
   360     0691                     	;# 
   361     0692                     	;# 
   362     0693                     	;# 
   363     0694                     	;# 
   364     070C                     	;# 
   365     070D                     	;# 
   366     070E                     	;# 
   367     070F                     	;# 
   368     0710                     	;# 
   369     0711                     	;# 
   370     0712                     	;# 
   371     0713                     	;# 
   372     0714                     	;# 
   373     0716                     	;# 
   374     0717                     	;# 
   375     0718                     	;# 
   376     0719                     	;# 
   377     071A                     	;# 
   378     071B                     	;# 
   379     071C                     	;# 
   380     071D                     	;# 
   381     071E                     	;# 
   382     0796                     	;# 
   383     0797                     	;# 
   384     0798                     	;# 
   385     0799                     	;# 
   386     079A                     	;# 
   387     079B                     	;# 
   388     080C                     	;# 
   389     080D                     	;# 
   390     080E                     	;# 
   391     080F                     	;# 
   392     0810                     	;# 
   393     0811                     	;# 
   394     0812                     	;# 
   395     0813                     	;# 
   396     0814                     	;# 
   397     081A                     	;# 
   398     081B                     	;# 
   399     081C                     	;# 
   400     081D                     	;# 
   401     081E                     	;# 
   402     081F                     	;# 
   403     088C                     	;# 
   404     088D                     	;# 
   405     088E                     	;# 
   406     088F                     	;# 
   407     0890                     	;# 
   408     0891                     	;# 
   409     0892                     	;# 
   410     0893                     	;# 
   411     0895                     	;# 
   412     0896                     	;# 
   413     0897                     	;# 
   414     0898                     	;# 
   415     0899                     	;# 
   416     089A                     	;# 
   417     089B                     	;# 
   418     090C                     	;# 
   419     090E                     	;# 
   420     090F                     	;# 
   421     091F                     	;# 
   422     098F                     	;# 
   423     098F                     	;# 
   424     0990                     	;# 
   425     0991                     	;# 
   426     0992                     	;# 
   427     0993                     	;# 
   428     0994                     	;# 
   429     0995                     	;# 
   430     0996                     	;# 
   431     0997                     	;# 
   432     0E0F                     	;# 
   433     0E10                     	;# 
   434     0E11                     	;# 
   435     0E12                     	;# 
   436     0E13                     	;# 
   437     0E14                     	;# 
   438     0E15                     	;# 
   439     0E16                     	;# 
   440     0E17                     	;# 
   441     0E18                     	;# 
   442     0E19                     	;# 
   443     0E1A                     	;# 
   444     0E1B                     	;# 
   445     0E1C                     	;# 
   446     0E1D                     	;# 
   447     0E1E                     	;# 
   448     0E1F                     	;# 
   449     0E20                     	;# 
   450     0E21                     	;# 
   451     0E22                     	;# 
   452     0E23                     	;# 
   453     0E24                     	;# 
   454     0E25                     	;# 
   455     0E26                     	;# 
   456     0E27                     	;# 
   457     0E28                     	;# 
   458     0E29                     	;# 
   459     0E2A                     	;# 
   460     0E2B                     	;# 
   461     0E2C                     	;# 
   462     0E2D                     	;# 
   463     0E2E                     	;# 
   464     0E2F                     	;# 
   465     0E30                     	;# 
   466     0E31                     	;# 
   467     0E32                     	;# 
   468     0E33                     	;# 
   469     0E34                     	;# 
   470     0E35                     	;# 
   471     0E36                     	;# 
   472     0E37                     	;# 
   473     0E8F                     	;# 
   474     0E90                     	;# 
   475     0E91                     	;# 
   476     0E92                     	;# 
   477     0E93                     	;# 
   478     0E94                     	;# 
   479     0E95                     	;# 
   480     0E96                     	;# 
   481     0E97                     	;# 
   482     0E9C                     	;# 
   483     0E9D                     	;# 
   484     0E9E                     	;# 
   485     0EA1                     	;# 
   486     0EA2                     	;# 
   487     0EA3                     	;# 
   488     0EA4                     	;# 
   489     0EA5                     	;# 
   490     0EA9                     	;# 
   491     0EAA                     	;# 
   492     0EAB                     	;# 
   493     0EAC                     	;# 
   494     0EB1                     	;# 
   495     0EB2                     	;# 
   496     0EB3                     	;# 
   497     0EB8                     	;# 
   498     0EB9                     	;# 
   499     0EBA                     	;# 
   500     0EBB                     	;# 
   501     0EBC                     	;# 
   502     0EBD                     	;# 
   503     0EBE                     	;# 
   504     0EC3                     	;# 
   505     0EC5                     	;# 
   506     0EC6                     	;# 
   507     0EC7                     	;# 
   508     0EC8                     	;# 
   509     0EC9                     	;# 
   510     0ECA                     	;# 
   511     0ECB                     	;# 
   512     0ECC                     	;# 
   513     0F10                     	;# 
   514     0F11                     	;# 
   515     0F12                     	;# 
   516     0F13                     	;# 
   517     0F14                     	;# 
   518     0F15                     	;# 
   519     0F16                     	;# 
   520     0F17                     	;# 
   521     0F18                     	;# 
   522     0F19                     	;# 
   523     0F1A                     	;# 
   524     0F1B                     	;# 
   525     0F1C                     	;# 
   526     0F1D                     	;# 
   527     0F1E                     	;# 
   528     0F1F                     	;# 
   529     0F20                     	;# 
   530     0F21                     	;# 
   531     0F22                     	;# 
   532     0F23                     	;# 
   533     0F24                     	;# 
   534     0F25                     	;# 
   535     0F26                     	;# 
   536     0F27                     	;# 
   537     0F38                     	;# 
   538     0F39                     	;# 
   539     0F3A                     	;# 
   540     0F3B                     	;# 
   541     0F3C                     	;# 
   542     0F3D                     	;# 
   543     0F3E                     	;# 
   544     0F3F                     	;# 
   545     0F40                     	;# 
   546     0F41                     	;# 
   547     0F43                     	;# 
   548     0F44                     	;# 
   549     0F45                     	;# 
   550     0F46                     	;# 
   551     0F47                     	;# 
   552     0F48                     	;# 
   553     0F49                     	;# 
   554     0F4A                     	;# 
   555     0F4B                     	;# 
   556     0F4C                     	;# 
   557     0F4E                     	;# 
   558     0F4F                     	;# 
   559     0F50                     	;# 
   560     0F51                     	;# 
   561     0F52                     	;# 
   562     0F53                     	;# 
   563     0F54                     	;# 
   564     0F55                     	;# 
   565     0F56                     	;# 
   566     0F57                     	;# 
   567     0F65                     	;# 
   568     0F68                     	;# 
   569     0F69                     	;# 
   570     0F6A                     	;# 
   571     0F6B                     	;# 
   572     0FE4                     	;# 
   573     0FE5                     	;# 
   574     0FE6                     	;# 
   575     0FE7                     	;# 
   576     0FE8                     	;# 
   577     0FE9                     	;# 
   578     0FEA                     	;# 
   579     0FEB                     	;# 
   580     0FED                     	;# 
   581     0FEE                     	;# 
   582     0FEF                     	;# 
   583     0000                     	;# 
   584     0001                     	;# 
   585     0002                     	;# 
   586     0003                     	;# 
   587     0004                     	;# 
   588     0005                     	;# 
   589     0006                     	;# 
   590     0007                     	;# 
   591     0008                     	;# 
   592     0009                     	;# 
   593     000A                     	;# 
   594     000B                     	;# 
   595     000C                     	;# 
   596     000D                     	;# 
   597     000E                     	;# 
   598     0010                     	;# 
   599     0011                     	;# 
   600     0012                     	;# 
   601     0013                     	;# 
   602     0016                     	;# 
   603     0017                     	;# 
   604     0018                     	;# 
   605     001C                     	;# 
   606     001C                     	;# 
   607     001D                     	;# 
   608     001D                     	;# 
   609     001E                     	;# 
   610     001F                     	;# 
   611     008C                     	;# 
   612     008C                     	;# 
   613     008D                     	;# 
   614     008E                     	;# 
   615     008E                     	;# 
   616     008F                     	;# 
   617     0090                     	;# 
   618     0090                     	;# 
   619     0091                     	;# 
   620     0093                     	;# 
   621     0094                     	;# 
   622     0095                     	;# 
   623     0096                     	;# 
   624     0097                     	;# 
   625     0098                     	;# 
   626     0099                     	;# 
   627     009A                     	;# 
   628     009B                     	;# 
   629     009C                     	;# 
   630     009D                     	;# 
   631     009E                     	;# 
   632     010C                     	;# 
   633     010D                     	;# 
   634     010E                     	;# 
   635     010E                     	;# 
   636     010F                     	;# 
   637     0110                     	;# 
   638     0110                     	;# 
   639     0111                     	;# 
   640     0112                     	;# 
   641     0112                     	;# 
   642     0113                     	;# 
   643     0114                     	;# 
   644     0114                     	;# 
   645     0115                     	;# 
   646     0116                     	;# 
   647     0116                     	;# 
   648     0117                     	;# 
   649     0119                     	;# 
   650     0119                     	;# 
   651     0119                     	;# 
   652     011A                     	;# 
   653     011A                     	;# 
   654     011A                     	;# 
   655     011B                     	;# 
   656     011B                     	;# 
   657     011B                     	;# 
   658     011B                     	;# 
   659     011B                     	;# 
   660     011C                     	;# 
   661     011C                     	;# 
   662     011C                     	;# 
   663     011D                     	;# 
   664     011D                     	;# 
   665     011D                     	;# 
   666     011E                     	;# 
   667     011E                     	;# 
   668     011E                     	;# 
   669     011F                     	;# 
   670     011F                     	;# 
   671     011F                     	;# 
   672     011F                     	;# 
   673     011F                     	;# 
   674     018C                     	;# 
   675     018D                     	;# 
   676     018E                     	;# 
   677     018F                     	;# 
   678     0190                     	;# 
   679     0191                     	;# 
   680     0192                     	;# 
   681     0196                     	;# 
   682     0197                     	;# 
   683     0198                     	;# 
   684     0199                     	;# 
   685     019A                     	;# 
   686     019B                     	;# 
   687     019C                     	;# 
   688     020C                     	;# 
   689     020C                     	;# 
   690     020D                     	;# 
   691     020E                     	;# 
   692     020F                     	;# 
   693     020F                     	;# 
   694     0210                     	;# 
   695     0210                     	;# 
   696     0211                     	;# 
   697     0211                     	;# 
   698     0212                     	;# 
   699     0212                     	;# 
   700     0213                     	;# 
   701     0214                     	;# 
   702     0215                     	;# 
   703     0215                     	;# 
   704     0216                     	;# 
   705     0216                     	;# 
   706     0217                     	;# 
   707     0217                     	;# 
   708     0218                     	;# 
   709     0218                     	;# 
   710     0219                     	;# 
   711     021A                     	;# 
   712     021B                     	;# 
   713     021B                     	;# 
   714     021C                     	;# 
   715     021C                     	;# 
   716     021D                     	;# 
   717     021D                     	;# 
   718     021E                     	;# 
   719     021F                     	;# 
   720     028C                     	;# 
   721     028C                     	;# 
   722     028D                     	;# 
   723     028D                     	;# 
   724     028E                     	;# 
   725     028F                     	;# 
   726     0290                     	;# 
   727     0290                     	;# 
   728     0291                     	;# 
   729     0292                     	;# 
   730     0292                     	;# 
   731     0293                     	;# 
   732     0293                     	;# 
   733     0294                     	;# 
   734     0295                     	;# 
   735     0296                     	;# 
   736     0296                     	;# 
   737     0297                     	;# 
   738     0298                     	;# 
   739     0298                     	;# 
   740     0299                     	;# 
   741     0299                     	;# 
   742     029A                     	;# 
   743     029B                     	;# 
   744     029C                     	;# 
   745     029C                     	;# 
   746     029D                     	;# 
   747     030C                     	;# 
   748     030C                     	;# 
   749     030D                     	;# 
   750     030E                     	;# 
   751     030F                     	;# 
   752     0310                     	;# 
   753     0310                     	;# 
   754     0311                     	;# 
   755     0312                     	;# 
   756     0313                     	;# 
   757     0314                     	;# 
   758     0314                     	;# 
   759     0315                     	;# 
   760     0316                     	;# 
   761     0317                     	;# 
   762     0318                     	;# 
   763     0318                     	;# 
   764     0319                     	;# 
   765     031A                     	;# 
   766     031B                     	;# 
   767     031C                     	;# 
   768     031C                     	;# 
   769     031D                     	;# 
   770     031E                     	;# 
   771     031F                     	;# 
   772     038C                     	;# 
   773     038C                     	;# 
   774     038D                     	;# 
   775     038E                     	;# 
   776     0390                     	;# 
   777     0390                     	;# 
   778     0391                     	;# 
   779     0392                     	;# 
   780     040C                     	;# 
   781     040D                     	;# 
   782     040E                     	;# 
   783     040F                     	;# 
   784     0410                     	;# 
   785     0411                     	;# 
   786     0416                     	;# 
   787     0416                     	;# 
   788     0417                     	;# 
   789     0418                     	;# 
   790     0418                     	;# 
   791     0419                     	;# 
   792     041A                     	;# 
   793     041A                     	;# 
   794     041B                     	;# 
   795     041C                     	;# 
   796     041C                     	;# 
   797     041D                     	;# 
   798     041E                     	;# 
   799     041F                     	;# 
   800     048C                     	;# 
   801     048C                     	;# 
   802     048D                     	;# 
   803     048E                     	;# 
   804     048F                     	;# 
   805     048F                     	;# 
   806     0490                     	;# 
   807     0491                     	;# 
   808     0492                     	;# 
   809     0492                     	;# 
   810     0493                     	;# 
   811     0494                     	;# 
   812     0495                     	;# 
   813     0495                     	;# 
   814     0496                     	;# 
   815     0497                     	;# 
   816     0498                     	;# 
   817     0499                     	;# 
   818     049A                     	;# 
   819     049B                     	;# 
   820     049C                     	;# 
   821     049D                     	;# 
   822     050C                     	;# 
   823     050C                     	;# 
   824     050D                     	;# 
   825     050E                     	;# 
   826     050F                     	;# 
   827     050F                     	;# 
   828     0510                     	;# 
   829     0511                     	;# 
   830     0512                     	;# 
   831     0512                     	;# 
   832     0513                     	;# 
   833     0514                     	;# 
   834     0515                     	;# 
   835     0515                     	;# 
   836     0516                     	;# 
   837     0517                     	;# 
   838     0518                     	;# 
   839     0519                     	;# 
   840     051A                     	;# 
   841     051B                     	;# 
   842     051C                     	;# 
   843     051D                     	;# 
   844     058C                     	;# 
   845     058C                     	;# 
   846     058D                     	;# 
   847     058E                     	;# 
   848     058F                     	;# 
   849     058F                     	;# 
   850     0590                     	;# 
   851     0591                     	;# 
   852     0592                     	;# 
   853     0593                     	;# 
   854     060C                     	;# 
   855     060D                     	;# 
   856     060E                     	;# 
   857     060F                     	;# 
   858     0610                     	;# 
   859     0611                     	;# 
   860     0612                     	;# 
   861     0613                     	;# 
   862     0614                     	;# 
   863     0616                     	;# 
   864     0617                     	;# 
   865     0618                     	;# 
   866     0619                     	;# 
   867     061A                     	;# 
   868     061B                     	;# 
   869     061C                     	;# 
   870     061D                     	;# 
   871     061E                     	;# 
   872     068C                     	;# 
   873     068D                     	;# 
   874     068E                     	;# 
   875     068F                     	;# 
   876     0690                     	;# 
   877     0691                     	;# 
   878     0692                     	;# 
   879     0693                     	;# 
   880     0694                     	;# 
   881     070C                     	;# 
   882     070D                     	;# 
   883     070E                     	;# 
   884     070F                     	;# 
   885     0710                     	;# 
   886     0711                     	;# 
   887     0712                     	;# 
   888     0713                     	;# 
   889     0714                     	;# 
   890     0716                     	;# 
   891     0717                     	;# 
   892     0718                     	;# 
   893     0719                     	;# 
   894     071A                     	;# 
   895     071B                     	;# 
   896     071C                     	;# 
   897     071D                     	;# 
   898     071E                     	;# 
   899     0796                     	;# 
   900     0797                     	;# 
   901     0798                     	;# 
   902     0799                     	;# 
   903     079A                     	;# 
   904     079B                     	;# 
   905     080C                     	;# 
   906     080D                     	;# 
   907     080E                     	;# 
   908     080F                     	;# 
   909     0810                     	;# 
   910     0811                     	;# 
   911     0812                     	;# 
   912     0813                     	;# 
   913     0814                     	;# 
   914     081A                     	;# 
   915     081B                     	;# 
   916     081C                     	;# 
   917     081D                     	;# 
   918     081E                     	;# 
   919     081F                     	;# 
   920     088C                     	;# 
   921     088D                     	;# 
   922     088E                     	;# 
   923     088F                     	;# 
   924     0890                     	;# 
   925     0891                     	;# 
   926     0892                     	;# 
   927     0893                     	;# 
   928     0895                     	;# 
   929     0896                     	;# 
   930     0897                     	;# 
   931     0898                     	;# 
   932     0899                     	;# 
   933     089A                     	;# 
   934     089B                     	;# 
   935     090C                     	;# 
   936     090E                     	;# 
   937     090F                     	;# 
   938     091F                     	;# 
   939     098F                     	;# 
   940     098F                     	;# 
   941     0990                     	;# 
   942     0991                     	;# 
   943     0992                     	;# 
   944     0993                     	;# 
   945     0994                     	;# 
   946     0995                     	;# 
   947     0996                     	;# 
   948     0997                     	;# 
   949     0E0F                     	;# 
   950     0E10                     	;# 
   951     0E11                     	;# 
   952     0E12                     	;# 
   953     0E13                     	;# 
   954     0E14                     	;# 
   955     0E15                     	;# 
   956     0E16                     	;# 
   957     0E17                     	;# 
   958     0E18                     	;# 
   959     0E19                     	;# 
   960     0E1A                     	;# 
   961     0E1B                     	;# 
   962     0E1C                     	;# 
   963     0E1D                     	;# 
   964     0E1E                     	;# 
   965     0E1F                     	;# 
   966     0E20                     	;# 
   967     0E21                     	;# 
   968     0E22                     	;# 
   969     0E23                     	;# 
   970     0E24                     	;# 
   971     0E25                     	;# 
   972     0E26                     	;# 
   973     0E27                     	;# 
   974     0E28                     	;# 
   975     0E29                     	;# 
   976     0E2A                     	;# 
   977     0E2B                     	;# 
   978     0E2C                     	;# 
   979     0E2D                     	;# 
   980     0E2E                     	;# 
   981     0E2F                     	;# 
   982     0E30                     	;# 
   983     0E31                     	;# 
   984     0E32                     	;# 
   985     0E33                     	;# 
   986     0E34                     	;# 
   987     0E35                     	;# 
   988     0E36                     	;# 
   989     0E37                     	;# 
   990     0E8F                     	;# 
   991     0E90                     	;# 
   992     0E91                     	;# 
   993     0E92                     	;# 
   994     0E93                     	;# 
   995     0E94                     	;# 
   996     0E95                     	;# 
   997     0E96                     	;# 
   998     0E97                     	;# 
   999     0E9C                     	;# 
  1000     0E9D                     	;# 
  1001     0E9E                     	;# 
  1002     0EA1                     	;# 
  1003     0EA2                     	;# 
  1004     0EA3                     	;# 
  1005     0EA4                     	;# 
  1006     0EA5                     	;# 
  1007     0EA9                     	;# 
  1008     0EAA                     	;# 
  1009     0EAB                     	;# 
  1010     0EAC                     	;# 
  1011     0EB1                     	;# 
  1012     0EB2                     	;# 
  1013     0EB3                     	;# 
  1014     0EB8                     	;# 
  1015     0EB9                     	;# 
  1016     0EBA                     	;# 
  1017     0EBB                     	;# 
  1018     0EBC                     	;# 
  1019     0EBD                     	;# 
  1020     0EBE                     	;# 
  1021     0EC3                     	;# 
  1022     0EC5                     	;# 
  1023     0EC6                     	;# 
  1024     0EC7                     	;# 
  1025     0EC8                     	;# 
  1026     0EC9                     	;# 
  1027     0ECA                     	;# 
  1028     0ECB                     	;# 
  1029     0ECC                     	;# 
  1030     0F10                     	;# 
  1031     0F11                     	;# 
  1032     0F12                     	;# 
  1033     0F13                     	;# 
  1034     0F14                     	;# 
  1035     0F15                     	;# 
  1036     0F16                     	;# 
  1037     0F17                     	;# 
  1038     0F18                     	;# 
  1039     0F19                     	;# 
  1040     0F1A                     	;# 
  1041     0F1B                     	;# 
  1042     0F1C                     	;# 
  1043     0F1D                     	;# 
  1044     0F1E                     	;# 
  1045     0F1F                     	;# 
  1046     0F20                     	;# 
  1047     0F21                     	;# 
  1048     0F22                     	;# 
  1049     0F23                     	;# 
  1050     0F24                     	;# 
  1051     0F25                     	;# 
  1052     0F26                     	;# 
  1053     0F27                     	;# 
  1054     0F38                     	;# 
  1055     0F39                     	;# 
  1056     0F3A                     	;# 
  1057     0F3B                     	;# 
  1058     0F3C                     	;# 
  1059     0F3D                     	;# 
  1060     0F3E                     	;# 
  1061     0F3F                     	;# 
  1062     0F40                     	;# 
  1063     0F41                     	;# 
  1064     0F43                     	;# 
  1065     0F44                     	;# 
  1066     0F45                     	;# 
  1067     0F46                     	;# 
  1068     0F47                     	;# 
  1069     0F48                     	;# 
  1070     0F49                     	;# 
  1071     0F4A                     	;# 
  1072     0F4B                     	;# 
  1073     0F4C                     	;# 
  1074     0F4E                     	;# 
  1075     0F4F                     	;# 
  1076     0F50                     	;# 
  1077     0F51                     	;# 
  1078     0F52                     	;# 
  1079     0F53                     	;# 
  1080     0F54                     	;# 
  1081     0F55                     	;# 
  1082     0F56                     	;# 
  1083     0F57                     	;# 
  1084     0F65                     	;# 
  1085     0F68                     	;# 
  1086     0F69                     	;# 
  1087     0F6A                     	;# 
  1088     0F6B                     	;# 
  1089     0FE4                     	;# 
  1090     0FE5                     	;# 
  1091     0FE6                     	;# 
  1092     0FE7                     	;# 
  1093     0FE8                     	;# 
  1094     0FE9                     	;# 
  1095     0FEA                     	;# 
  1096     0FEB                     	;# 
  1097     0FED                     	;# 
  1098     0FEE                     	;# 
  1099     0FEF                     	;# 
  1100     0000                     	;# 
  1101     0001                     	;# 
  1102     0002                     	;# 
  1103     0003                     	;# 
  1104     0004                     	;# 
  1105     0005                     	;# 
  1106     0006                     	;# 
  1107     0007                     	;# 
  1108     0008                     	;# 
  1109     0009                     	;# 
  1110     000A                     	;# 
  1111     000B                     	;# 
  1112     000C                     	;# 
  1113     000D                     	;# 
  1114     000E                     	;# 
  1115     0010                     	;# 
  1116     0011                     	;# 
  1117     0012                     	;# 
  1118     0013                     	;# 
  1119     0016                     	;# 
  1120     0017                     	;# 
  1121     0018                     	;# 
  1122     001C                     	;# 
  1123     001C                     	;# 
  1124     001D                     	;# 
  1125     001D                     	;# 
  1126     001E                     	;# 
  1127     001F                     	;# 
  1128     008C                     	;# 
  1129     008C                     	;# 
  1130     008D                     	;# 
  1131     008E                     	;# 
  1132     008E                     	;# 
  1133     008F                     	;# 
  1134     0090                     	;# 
  1135     0090                     	;# 
  1136     0091                     	;# 
  1137     0093                     	;# 
  1138     0094                     	;# 
  1139     0095                     	;# 
  1140     0096                     	;# 
  1141     0097                     	;# 
  1142     0098                     	;# 
  1143     0099                     	;# 
  1144     009A                     	;# 
  1145     009B                     	;# 
  1146     009C                     	;# 
  1147     009D                     	;# 
  1148     009E                     	;# 
  1149     010C                     	;# 
  1150     010D                     	;# 
  1151     010E                     	;# 
  1152     010E                     	;# 
  1153     010F                     	;# 
  1154     0110                     	;# 
  1155     0110                     	;# 
  1156     0111                     	;# 
  1157     0112                     	;# 
  1158     0112                     	;# 
  1159     0113                     	;# 
  1160     0114                     	;# 
  1161     0114                     	;# 
  1162     0115                     	;# 
  1163     0116                     	;# 
  1164     0116                     	;# 
  1165     0117                     	;# 
  1166     0119                     	;# 
  1167     0119                     	;# 
  1168     0119                     	;# 
  1169     011A                     	;# 
  1170     011A                     	;# 
  1171     011A                     	;# 
  1172     011B                     	;# 
  1173     011B                     	;# 
  1174     011B                     	;# 
  1175     011B                     	;# 
  1176     011B                     	;# 
  1177     011C                     	;# 
  1178     011C                     	;# 
  1179     011C                     	;# 
  1180     011D                     	;# 
  1181     011D                     	;# 
  1182     011D                     	;# 
  1183     011E                     	;# 
  1184     011E                     	;# 
  1185     011E                     	;# 
  1186     011F                     	;# 
  1187     011F                     	;# 
  1188     011F                     	;# 
  1189     011F                     	;# 
  1190     011F                     	;# 
  1191     018C                     	;# 
  1192     018D                     	;# 
  1193     018E                     	;# 
  1194     018F                     	;# 
  1195     0190                     	;# 
  1196     0191                     	;# 
  1197     0192                     	;# 
  1198     0196                     	;# 
  1199     0197                     	;# 
  1200     0198                     	;# 
  1201     0199                     	;# 
  1202     019A                     	;# 
  1203     019B                     	;# 
  1204     019C                     	;# 
  1205     020C                     	;# 
  1206     020C                     	;# 
  1207     020D                     	;# 
  1208     020E                     	;# 
  1209     020F                     	;# 
  1210     020F                     	;# 
  1211     0210                     	;# 
  1212     0210                     	;# 
  1213     0211                     	;# 
  1214     0211                     	;# 
  1215     0212                     	;# 
  1216     0212                     	;# 
  1217     0213                     	;# 
  1218     0214                     	;# 
  1219     0215                     	;# 
  1220     0215                     	;# 
  1221     0216                     	;# 
  1222     0216                     	;# 
  1223     0217                     	;# 
  1224     0217                     	;# 
  1225     0218                     	;# 
  1226     0218                     	;# 
  1227     0219                     	;# 
  1228     021A                     	;# 
  1229     021B                     	;# 
  1230     021B                     	;# 
  1231     021C                     	;# 
  1232     021C                     	;# 
  1233     021D                     	;# 
  1234     021D                     	;# 
  1235     021E                     	;# 
  1236     021F                     	;# 
  1237     028C                     	;# 
  1238     028C                     	;# 
  1239     028D                     	;# 
  1240     028D                     	;# 
  1241     028E                     	;# 
  1242     028F                     	;# 
  1243     0290                     	;# 
  1244     0290                     	;# 
  1245     0291                     	;# 
  1246     0292                     	;# 
  1247     0292                     	;# 
  1248     0293                     	;# 
  1249     0293                     	;# 
  1250     0294                     	;# 
  1251     0295                     	;# 
  1252     0296                     	;# 
  1253     0296                     	;# 
  1254     0297                     	;# 
  1255     0298                     	;# 
  1256     0298                     	;# 
  1257     0299                     	;# 
  1258     0299                     	;# 
  1259     029A                     	;# 
  1260     029B                     	;# 
  1261     029C                     	;# 
  1262     029C                     	;# 
  1263     029D                     	;# 
  1264     030C                     	;# 
  1265     030C                     	;# 
  1266     030D                     	;# 
  1267     030E                     	;# 
  1268     030F                     	;# 
  1269     0310                     	;# 
  1270     0310                     	;# 
  1271     0311                     	;# 
  1272     0312                     	;# 
  1273     0313                     	;# 
  1274     0314                     	;# 
  1275     0314                     	;# 
  1276     0315                     	;# 
  1277     0316                     	;# 
  1278     0317                     	;# 
  1279     0318                     	;# 
  1280     0318                     	;# 
  1281     0319                     	;# 
  1282     031A                     	;# 
  1283     031B                     	;# 
  1284     031C                     	;# 
  1285     031C                     	;# 
  1286     031D                     	;# 
  1287     031E                     	;# 
  1288     031F                     	;# 
  1289     038C                     	;# 
  1290     038C                     	;# 
  1291     038D                     	;# 
  1292     038E                     	;# 
  1293     0390                     	;# 
  1294     0390                     	;# 
  1295     0391                     	;# 
  1296     0392                     	;# 
  1297     040C                     	;# 
  1298     040D                     	;# 
  1299     040E                     	;# 
  1300     040F                     	;# 
  1301     0410                     	;# 
  1302     0411                     	;# 
  1303     0416                     	;# 
  1304     0416                     	;# 
  1305     0417                     	;# 
  1306     0418                     	;# 
  1307     0418                     	;# 
  1308     0419                     	;# 
  1309     041A                     	;# 
  1310     041A                     	;# 
  1311     041B                     	;# 
  1312     041C                     	;# 
  1313     041C                     	;# 
  1314     041D                     	;# 
  1315     041E                     	;# 
  1316     041F                     	;# 
  1317     048C                     	;# 
  1318     048C                     	;# 
  1319     048D                     	;# 
  1320     048E                     	;# 
  1321     048F                     	;# 
  1322     048F                     	;# 
  1323     0490                     	;# 
  1324     0491                     	;# 
  1325     0492                     	;# 
  1326     0492                     	;# 
  1327     0493                     	;# 
  1328     0494                     	;# 
  1329     0495                     	;# 
  1330     0495                     	;# 
  1331     0496                     	;# 
  1332     0497                     	;# 
  1333     0498                     	;# 
  1334     0499                     	;# 
  1335     049A                     	;# 
  1336     049B                     	;# 
  1337     049C                     	;# 
  1338     049D                     	;# 
  1339     050C                     	;# 
  1340     050C                     	;# 
  1341     050D                     	;# 
  1342     050E                     	;# 
  1343     050F                     	;# 
  1344     050F                     	;# 
  1345     0510                     	;# 
  1346     0511                     	;# 
  1347     0512                     	;# 
  1348     0512                     	;# 
  1349     0513                     	;# 
  1350     0514                     	;# 
  1351     0515                     	;# 
  1352     0515                     	;# 
  1353     0516                     	;# 
  1354     0517                     	;# 
  1355     0518                     	;# 
  1356     0519                     	;# 
  1357     051A                     	;# 
  1358     051B                     	;# 
  1359     051C                     	;# 
  1360     051D                     	;# 
  1361     058C                     	;# 
  1362     058C                     	;# 
  1363     058D                     	;# 
  1364     058E                     	;# 
  1365     058F                     	;# 
  1366     058F                     	;# 
  1367     0590                     	;# 
  1368     0591                     	;# 
  1369     0592                     	;# 
  1370     0593                     	;# 
  1371     060C                     	;# 
  1372     060D                     	;# 
  1373     060E                     	;# 
  1374     060F                     	;# 
  1375     0610                     	;# 
  1376     0611                     	;# 
  1377     0612                     	;# 
  1378     0613                     	;# 
  1379     0614                     	;# 
  1380     0616                     	;# 
  1381     0617                     	;# 
  1382     0618                     	;# 
  1383     0619                     	;# 
  1384     061A                     	;# 
  1385     061B                     	;# 
  1386     061C                     	;# 
  1387     061D                     	;# 
  1388     061E                     	;# 
  1389     068C                     	;# 
  1390     068D                     	;# 
  1391     068E                     	;# 
  1392     068F                     	;# 
  1393     0690                     	;# 
  1394     0691                     	;# 
  1395     0692                     	;# 
  1396     0693                     	;# 
  1397     0694                     	;# 
  1398     070C                     	;# 
  1399     070D                     	;# 
  1400     070E                     	;# 
  1401     070F                     	;# 
  1402     0710                     	;# 
  1403     0711                     	;# 
  1404     0712                     	;# 
  1405     0713                     	;# 
  1406     0714                     	;# 
  1407     0716                     	;# 
  1408     0717                     	;# 
  1409     0718                     	;# 
  1410     0719                     	;# 
  1411     071A                     	;# 
  1412     071B                     	;# 
  1413     071C                     	;# 
  1414     071D                     	;# 
  1415     071E                     	;# 
  1416     0796                     	;# 
  1417     0797                     	;# 
  1418     0798                     	;# 
  1419     0799                     	;# 
  1420     079A                     	;# 
  1421     079B                     	;# 
  1422     080C                     	;# 
  1423     080D                     	;# 
  1424     080E                     	;# 
  1425     080F                     	;# 
  1426     0810                     	;# 
  1427     0811                     	;# 
  1428     0812                     	;# 
  1429     0813                     	;# 
  1430     0814                     	;# 
  1431     081A                     	;# 
  1432     081B                     	;# 
  1433     081C                     	;# 
  1434     081D                     	;# 
  1435     081E                     	;# 
  1436     081F                     	;# 
  1437     088C                     	;# 
  1438     088D                     	;# 
  1439     088E                     	;# 
  1440     088F                     	;# 
  1441     0890                     	;# 
  1442     0891                     	;# 
  1443     0892                     	;# 
  1444     0893                     	;# 
  1445     0895                     	;# 
  1446     0896                     	;# 
  1447     0897                     	;# 
  1448     0898                     	;# 
  1449     0899                     	;# 
  1450     089A                     	;# 
  1451     089B                     	;# 
  1452     090C                     	;# 
  1453     090E                     	;# 
  1454     090F                     	;# 
  1455     091F                     	;# 
  1456     098F                     	;# 
  1457     098F                     	;# 
  1458     0990                     	;# 
  1459     0991                     	;# 
  1460     0992                     	;# 
  1461     0993                     	;# 
  1462     0994                     	;# 
  1463     0995                     	;# 
  1464     0996                     	;# 
  1465     0997                     	;# 
  1466     0E0F                     	;# 
  1467     0E10                     	;# 
  1468     0E11                     	;# 
  1469     0E12                     	;# 
  1470     0E13                     	;# 
  1471     0E14                     	;# 
  1472     0E15                     	;# 
  1473     0E16                     	;# 
  1474     0E17                     	;# 
  1475     0E18                     	;# 
  1476     0E19                     	;# 
  1477     0E1A                     	;# 
  1478     0E1B                     	;# 
  1479     0E1C                     	;# 
  1480     0E1D                     	;# 
  1481     0E1E                     	;# 
  1482     0E1F                     	;# 
  1483     0E20                     	;# 
  1484     0E21                     	;# 
  1485     0E22                     	;# 
  1486     0E23                     	;# 
  1487     0E24                     	;# 
  1488     0E25                     	;# 
  1489     0E26                     	;# 
  1490     0E27                     	;# 
  1491     0E28                     	;# 
  1492     0E29                     	;# 
  1493     0E2A                     	;# 
  1494     0E2B                     	;# 
  1495     0E2C                     	;# 
  1496     0E2D                     	;# 
  1497     0E2E                     	;# 
  1498     0E2F                     	;# 
  1499     0E30                     	;# 
  1500     0E31                     	;# 
  1501     0E32                     	;# 
  1502     0E33                     	;# 
  1503     0E34                     	;# 
  1504     0E35                     	;# 
  1505     0E36                     	;# 
  1506     0E37                     	;# 
  1507     0E8F                     	;# 
  1508     0E90                     	;# 
  1509     0E91                     	;# 
  1510     0E92                     	;# 
  1511     0E93                     	;# 
  1512     0E94                     	;# 
  1513     0E95                     	;# 
  1514     0E96                     	;# 
  1515     0E97                     	;# 
  1516     0E9C                     	;# 
  1517     0E9D                     	;# 
  1518     0E9E                     	;# 
  1519     0EA1                     	;# 
  1520     0EA2                     	;# 
  1521     0EA3                     	;# 
  1522     0EA4                     	;# 
  1523     0EA5                     	;# 
  1524     0EA9                     	;# 
  1525     0EAA                     	;# 
  1526     0EAB                     	;# 
  1527     0EAC                     	;# 
  1528     0EB1                     	;# 
  1529     0EB2                     	;# 
  1530     0EB3                     	;# 
  1531     0EB8                     	;# 
  1532     0EB9                     	;# 
  1533     0EBA                     	;# 
  1534     0EBB                     	;# 
  1535     0EBC                     	;# 
  1536     0EBD                     	;# 
  1537     0EBE                     	;# 
  1538     0EC3                     	;# 
  1539     0EC5                     	;# 
  1540     0EC6                     	;# 
  1541     0EC7                     	;# 
  1542     0EC8                     	;# 
  1543     0EC9                     	;# 
  1544     0ECA                     	;# 
  1545     0ECB                     	;# 
  1546     0ECC                     	;# 
  1547     0F10                     	;# 
  1548     0F11                     	;# 
  1549     0F12                     	;# 
  1550     0F13                     	;# 
  1551     0F14                     	;# 
  1552     0F15                     	;# 
  1553     0F16                     	;# 
  1554     0F17                     	;# 
  1555     0F18                     	;# 
  1556     0F19                     	;# 
  1557     0F1A                     	;# 
  1558     0F1B                     	;# 
  1559     0F1C                     	;# 
  1560     0F1D                     	;# 
  1561     0F1E                     	;# 
  1562     0F1F                     	;# 
  1563     0F20                     	;# 
  1564     0F21                     	;# 
  1565     0F22                     	;# 
  1566     0F23                     	;# 
  1567     0F24                     	;# 
  1568     0F25                     	;# 
  1569     0F26                     	;# 
  1570     0F27                     	;# 
  1571     0F38                     	;# 
  1572     0F39                     	;# 
  1573     0F3A                     	;# 
  1574     0F3B                     	;# 
  1575     0F3C                     	;# 
  1576     0F3D                     	;# 
  1577     0F3E                     	;# 
  1578     0F3F                     	;# 
  1579     0F40                     	;# 
  1580     0F41                     	;# 
  1581     0F43                     	;# 
  1582     0F44                     	;# 
  1583     0F45                     	;# 
  1584     0F46                     	;# 
  1585     0F47                     	;# 
  1586     0F48                     	;# 
  1587     0F49                     	;# 
  1588     0F4A                     	;# 
  1589     0F4B                     	;# 
  1590     0F4C                     	;# 
  1591     0F4E                     	;# 
  1592     0F4F                     	;# 
  1593     0F50                     	;# 
  1594     0F51                     	;# 
  1595     0F52                     	;# 
  1596     0F53                     	;# 
  1597     0F54                     	;# 
  1598     0F55                     	;# 
  1599     0F56                     	;# 
  1600     0F57                     	;# 
  1601     0F65                     	;# 
  1602     0F68                     	;# 
  1603     0F69                     	;# 
  1604     0F6A                     	;# 
  1605     0F6B                     	;# 
  1606     0FE4                     	;# 
  1607     0FE5                     	;# 
  1608     0FE6                     	;# 
  1609     0FE7                     	;# 
  1610     0FE8                     	;# 
  1611     0FE9                     	;# 
  1612     0FEA                     	;# 
  1613     0FEB                     	;# 
  1614     0FED                     	;# 
  1615     0FEE                     	;# 
  1616     0FEF                     	;# 
  1617     0000                     	;# 
  1618     0001                     	;# 
  1619     0002                     	;# 
  1620     0003                     	;# 
  1621     0004                     	;# 
  1622     0005                     	;# 
  1623     0006                     	;# 
  1624     0007                     	;# 
  1625     0008                     	;# 
  1626     0009                     	;# 
  1627     000A                     	;# 
  1628     000B                     	;# 
  1629     000C                     	;# 
  1630     000D                     	;# 
  1631     000E                     	;# 
  1632     0010                     	;# 
  1633     0011                     	;# 
  1634     0012                     	;# 
  1635     0013                     	;# 
  1636     0016                     	;# 
  1637     0017                     	;# 
  1638     0018                     	;# 
  1639     001C                     	;# 
  1640     001C                     	;# 
  1641     001D                     	;# 
  1642     001D                     	;# 
  1643     001E                     	;# 
  1644     001F                     	;# 
  1645     008C                     	;# 
  1646     008C                     	;# 
  1647     008D                     	;# 
  1648     008E                     	;# 
  1649     008E                     	;# 
  1650     008F                     	;# 
  1651     0090                     	;# 
  1652     0090                     	;# 
  1653     0091                     	;# 
  1654     0093                     	;# 
  1655     0094                     	;# 
  1656     0095                     	;# 
  1657     0096                     	;# 
  1658     0097                     	;# 
  1659     0098                     	;# 
  1660     0099                     	;# 
  1661     009A                     	;# 
  1662     009B                     	;# 
  1663     009C                     	;# 
  1664     009D                     	;# 
  1665     009E                     	;# 
  1666     010C                     	;# 
  1667     010D                     	;# 
  1668     010E                     	;# 
  1669     010E                     	;# 
  1670     010F                     	;# 
  1671     0110                     	;# 
  1672     0110                     	;# 
  1673     0111                     	;# 
  1674     0112                     	;# 
  1675     0112                     	;# 
  1676     0113                     	;# 
  1677     0114                     	;# 
  1678     0114                     	;# 
  1679     0115                     	;# 
  1680     0116                     	;# 
  1681     0116                     	;# 
  1682     0117                     	;# 
  1683     0119                     	;# 
  1684     0119                     	;# 
  1685     0119                     	;# 
  1686     011A                     	;# 
  1687     011A                     	;# 
  1688     011A                     	;# 
  1689     011B                     	;# 
  1690     011B                     	;# 
  1691     011B                     	;# 
  1692     011B                     	;# 
  1693     011B                     	;# 
  1694     011C                     	;# 
  1695     011C                     	;# 
  1696     011C                     	;# 
  1697     011D                     	;# 
  1698     011D                     	;# 
  1699     011D                     	;# 
  1700     011E                     	;# 
  1701     011E                     	;# 
  1702     011E                     	;# 
  1703     011F                     	;# 
  1704     011F                     	;# 
  1705     011F                     	;# 
  1706     011F                     	;# 
  1707     011F                     	;# 
  1708     018C                     	;# 
  1709     018D                     	;# 
  1710     018E                     	;# 
  1711     018F                     	;# 
  1712     0190                     	;# 
  1713     0191                     	;# 
  1714     0192                     	;# 
  1715     0196                     	;# 
  1716     0197                     	;# 
  1717     0198                     	;# 
  1718     0199                     	;# 
  1719     019A                     	;# 
  1720     019B                     	;# 
  1721     019C                     	;# 
  1722     020C                     	;# 
  1723     020C                     	;# 
  1724     020D                     	;# 
  1725     020E                     	;# 
  1726     020F                     	;# 
  1727     020F                     	;# 
  1728     0210                     	;# 
  1729     0210                     	;# 
  1730     0211                     	;# 
  1731     0211                     	;# 
  1732     0212                     	;# 
  1733     0212                     	;# 
  1734     0213                     	;# 
  1735     0214                     	;# 
  1736     0215                     	;# 
  1737     0215                     	;# 
  1738     0216                     	;# 
  1739     0216                     	;# 
  1740     0217                     	;# 
  1741     0217                     	;# 
  1742     0218                     	;# 
  1743     0218                     	;# 
  1744     0219                     	;# 
  1745     021A                     	;# 
  1746     021B                     	;# 
  1747     021B                     	;# 
  1748     021C                     	;# 
  1749     021C                     	;# 
  1750     021D                     	;# 
  1751     021D                     	;# 
  1752     021E                     	;# 
  1753     021F                     	;# 
  1754     028C                     	;# 
  1755     028C                     	;# 
  1756     028D                     	;# 
  1757     028D                     	;# 
  1758     028E                     	;# 
  1759     028F                     	;# 
  1760     0290                     	;# 
  1761     0290                     	;# 
  1762     0291                     	;# 
  1763     0292                     	;# 
  1764     0292                     	;# 
  1765     0293                     	;# 
  1766     0293                     	;# 
  1767     0294                     	;# 
  1768     0295                     	;# 
  1769     0296                     	;# 
  1770     0296                     	;# 
  1771     0297                     	;# 
  1772     0298                     	;# 
  1773     0298                     	;# 
  1774     0299                     	;# 
  1775     0299                     	;# 
  1776     029A                     	;# 
  1777     029B                     	;# 
  1778     029C                     	;# 
  1779     029C                     	;# 
  1780     029D                     	;# 
  1781     030C                     	;# 
  1782     030C                     	;# 
  1783     030D                     	;# 
  1784     030E                     	;# 
  1785     030F                     	;# 
  1786     0310                     	;# 
  1787     0310                     	;# 
  1788     0311                     	;# 
  1789     0312                     	;# 
  1790     0313                     	;# 
  1791     0314                     	;# 
  1792     0314                     	;# 
  1793     0315                     	;# 
  1794     0316                     	;# 
  1795     0317                     	;# 
  1796     0318                     	;# 
  1797     0318                     	;# 
  1798     0319                     	;# 
  1799     031A                     	;# 
  1800     031B                     	;# 
  1801     031C                     	;# 
  1802     031C                     	;# 
  1803     031D                     	;# 
  1804     031E                     	;# 
  1805     031F                     	;# 
  1806     038C                     	;# 
  1807     038C                     	;# 
  1808     038D                     	;# 
  1809     038E                     	;# 
  1810     0390                     	;# 
  1811     0390                     	;# 
  1812     0391                     	;# 
  1813     0392                     	;# 
  1814     040C                     	;# 
  1815     040D                     	;# 
  1816     040E                     	;# 
  1817     040F                     	;# 
  1818     0410                     	;# 
  1819     0411                     	;# 
  1820     0416                     	;# 
  1821     0416                     	;# 
  1822     0417                     	;# 
  1823     0418                     	;# 
  1824     0418                     	;# 
  1825     0419                     	;# 
  1826     041A                     	;# 
  1827     041A                     	;# 
  1828     041B                     	;# 
  1829     041C                     	;# 
  1830     041C                     	;# 
  1831     041D                     	;# 
  1832     041E                     	;# 
  1833     041F                     	;# 
  1834     048C                     	;# 
  1835     048C                     	;# 
  1836     048D                     	;# 
  1837     048E                     	;# 
  1838     048F                     	;# 
  1839     048F                     	;# 
  1840     0490                     	;# 
  1841     0491                     	;# 
  1842     0492                     	;# 
  1843     0492                     	;# 
  1844     0493                     	;# 
  1845     0494                     	;# 
  1846     0495                     	;# 
  1847     0495                     	;# 
  1848     0496                     	;# 
  1849     0497                     	;# 
  1850     0498                     	;# 
  1851     0499                     	;# 
  1852     049A                     	;# 
  1853     049B                     	;# 
  1854     049C                     	;# 
  1855     049D                     	;# 
  1856     050C                     	;# 
  1857     050C                     	;# 
  1858     050D                     	;# 
  1859     050E                     	;# 
  1860     050F                     	;# 
  1861     050F                     	;# 
  1862     0510                     	;# 
  1863     0511                     	;# 
  1864     0512                     	;# 
  1865     0512                     	;# 
  1866     0513                     	;# 
  1867     0514                     	;# 
  1868     0515                     	;# 
  1869     0515                     	;# 
  1870     0516                     	;# 
  1871     0517                     	;# 
  1872     0518                     	;# 
  1873     0519                     	;# 
  1874     051A                     	;# 
  1875     051B                     	;# 
  1876     051C                     	;# 
  1877     051D                     	;# 
  1878     058C                     	;# 
  1879     058C                     	;# 
  1880     058D                     	;# 
  1881     058E                     	;# 
  1882     058F                     	;# 
  1883     058F                     	;# 
  1884     0590                     	;# 
  1885     0591                     	;# 
  1886     0592                     	;# 
  1887     0593                     	;# 
  1888     060C                     	;# 
  1889     060D                     	;# 
  1890     060E                     	;# 
  1891     060F                     	;# 
  1892     0610                     	;# 
  1893     0611                     	;# 
  1894     0612                     	;# 
  1895     0613                     	;# 
  1896     0614                     	;# 
  1897     0616                     	;# 
  1898     0617                     	;# 
  1899     0618                     	;# 
  1900     0619                     	;# 
  1901     061A                     	;# 
  1902     061B                     	;# 
  1903     061C                     	;# 
  1904     061D                     	;# 
  1905     061E                     	;# 
  1906     068C                     	;# 
  1907     068D                     	;# 
  1908     068E                     	;# 
  1909     068F                     	;# 
  1910     0690                     	;# 
  1911     0691                     	;# 
  1912     0692                     	;# 
  1913     0693                     	;# 
  1914     0694                     	;# 
  1915     070C                     	;# 
  1916     070D                     	;# 
  1917     070E                     	;# 
  1918     070F                     	;# 
  1919     0710                     	;# 
  1920     0711                     	;# 
  1921     0712                     	;# 
  1922     0713                     	;# 
  1923     0714                     	;# 
  1924     0716                     	;# 
  1925     0717                     	;# 
  1926     0718                     	;# 
  1927     0719                     	;# 
  1928     071A                     	;# 
  1929     071B                     	;# 
  1930     071C                     	;# 
  1931     071D                     	;# 
  1932     071E                     	;# 
  1933     0796                     	;# 
  1934     0797                     	;# 
  1935     0798                     	;# 
  1936     0799                     	;# 
  1937     079A                     	;# 
  1938     079B                     	;# 
  1939     080C                     	;# 
  1940     080D                     	;# 
  1941     080E                     	;# 
  1942     080F                     	;# 
  1943     0810                     	;# 
  1944     0811                     	;# 
  1945     0812                     	;# 
  1946     0813                     	;# 
  1947     0814                     	;# 
  1948     081A                     	;# 
  1949     081B                     	;# 
  1950     081C                     	;# 
  1951     081D                     	;# 
  1952     081E                     	;# 
  1953     081F                     	;# 
  1954     088C                     	;# 
  1955     088D                     	;# 
  1956     088E                     	;# 
  1957     088F                     	;# 
  1958     0890                     	;# 
  1959     0891                     	;# 
  1960     0892                     	;# 
  1961     0893                     	;# 
  1962     0895                     	;# 
  1963     0896                     	;# 
  1964     0897                     	;# 
  1965     0898                     	;# 
  1966     0899                     	;# 
  1967     089A                     	;# 
  1968     089B                     	;# 
  1969     090C                     	;# 
  1970     090E                     	;# 
  1971     090F                     	;# 
  1972     091F                     	;# 
  1973     098F                     	;# 
  1974     098F                     	;# 
  1975     0990                     	;# 
  1976     0991                     	;# 
  1977     0992                     	;# 
  1978     0993                     	;# 
  1979     0994                     	;# 
  1980     0995                     	;# 
  1981     0996                     	;# 
  1982     0997                     	;# 
  1983     0E0F                     	;# 
  1984     0E10                     	;# 
  1985     0E11                     	;# 
  1986     0E12                     	;# 
  1987     0E13                     	;# 
  1988     0E14                     	;# 
  1989     0E15                     	;# 
  1990     0E16                     	;# 
  1991     0E17                     	;# 
  1992     0E18                     	;# 
  1993     0E19                     	;# 
  1994     0E1A                     	;# 
  1995     0E1B                     	;# 
  1996     0E1C                     	;# 
  1997     0E1D                     	;# 
  1998     0E1E                     	;# 
  1999     0E1F                     	;# 
  2000     0E20                     	;# 
  2001     0E21                     	;# 
  2002     0E22                     	;# 
  2003     0E23                     	;# 
  2004     0E24                     	;# 
  2005     0E25                     	;# 
  2006     0E26                     	;# 
  2007     0E27                     	;# 
  2008     0E28                     	;# 
  2009     0E29                     	;# 
  2010     0E2A                     	;# 
  2011     0E2B                     	;# 
  2012     0E2C                     	;# 
  2013     0E2D                     	;# 
  2014     0E2E                     	;# 
  2015     0E2F                     	;# 
  2016     0E30                     	;# 
  2017     0E31                     	;# 
  2018     0E32                     	;# 
  2019     0E33                     	;# 
  2020     0E34                     	;# 
  2021     0E35                     	;# 
  2022     0E36                     	;# 
  2023     0E37                     	;# 
  2024     0E8F                     	;# 
  2025     0E90                     	;# 
  2026     0E91                     	;# 
  2027     0E92                     	;# 
  2028     0E93                     	;# 
  2029     0E94                     	;# 
  2030     0E95                     	;# 
  2031     0E96                     	;# 
  2032     0E97                     	;# 
  2033     0E9C                     	;# 
  2034     0E9D                     	;# 
  2035     0E9E                     	;# 
  2036     0EA1                     	;# 
  2037     0EA2                     	;# 
  2038     0EA3                     	;# 
  2039     0EA4                     	;# 
  2040     0EA5                     	;# 
  2041     0EA9                     	;# 
  2042     0EAA                     	;# 
  2043     0EAB                     	;# 
  2044     0EAC                     	;# 
  2045     0EB1                     	;# 
  2046     0EB2                     	;# 
  2047     0EB3                     	;# 
  2048     0EB8                     	;# 
  2049     0EB9                     	;# 
  2050     0EBA                     	;# 
  2051     0EBB                     	;# 
  2052     0EBC                     	;# 
  2053     0EBD                     	;# 
  2054     0EBE                     	;# 
  2055     0EC3                     	;# 
  2056     0EC5                     	;# 
  2057     0EC6                     	;# 
  2058     0EC7                     	;# 
  2059     0EC8                     	;# 
  2060     0EC9                     	;# 
  2061     0ECA                     	;# 
  2062     0ECB                     	;# 
  2063     0ECC                     	;# 
  2064     0F10                     	;# 
  2065     0F11                     	;# 
  2066     0F12                     	;# 
  2067     0F13                     	;# 
  2068     0F14                     	;# 
  2069     0F15                     	;# 
  2070     0F16                     	;# 
  2071     0F17                     	;# 
  2072     0F18                     	;# 
  2073     0F19                     	;# 
  2074     0F1A                     	;# 
  2075     0F1B                     	;# 
  2076     0F1C                     	;# 
  2077     0F1D                     	;# 
  2078     0F1E                     	;# 
  2079     0F1F                     	;# 
  2080     0F20                     	;# 
  2081     0F21                     	;# 
  2082     0F22                     	;# 
  2083     0F23                     	;# 
  2084     0F24                     	;# 
  2085     0F25                     	;# 
  2086     0F26                     	;# 
  2087     0F27                     	;# 
  2088     0F38                     	;# 
  2089     0F39                     	;# 
  2090     0F3A                     	;# 
  2091     0F3B                     	;# 
  2092     0F3C                     	;# 
  2093     0F3D                     	;# 
  2094     0F3E                     	;# 
  2095     0F3F                     	;# 
  2096     0F40                     	;# 
  2097     0F41                     	;# 
  2098     0F43                     	;# 
  2099     0F44                     	;# 
  2100     0F45                     	;# 
  2101     0F46                     	;# 
  2102     0F47                     	;# 
  2103     0F48                     	;# 
  2104     0F49                     	;# 
  2105     0F4A                     	;# 
  2106     0F4B                     	;# 
  2107     0F4C                     	;# 
  2108     0F4E                     	;# 
  2109     0F4F                     	;# 
  2110     0F50                     	;# 
  2111     0F51                     	;# 
  2112     0F52                     	;# 
  2113     0F53                     	;# 
  2114     0F54                     	;# 
  2115     0F55                     	;# 
  2116     0F56                     	;# 
  2117     0F57                     	;# 
  2118     0F65                     	;# 
  2119     0F68                     	;# 
  2120     0F69                     	;# 
  2121     0F6A                     	;# 
  2122     0F6B                     	;# 
  2123     0FE4                     	;# 
  2124     0FE5                     	;# 
  2125     0FE6                     	;# 
  2126     0FE7                     	;# 
  2127     0FE8                     	;# 
  2128     0FE9                     	;# 
  2129     0FEA                     	;# 
  2130     0FEB                     	;# 
  2131     0FED                     	;# 
  2132     0FEE                     	;# 
  2133     0FEF                     	;# 
  2134     0000                     	;# 
  2135     0001                     	;# 
  2136     0002                     	;# 
  2137     0003                     	;# 
  2138     0004                     	;# 
  2139     0005                     	;# 
  2140     0006                     	;# 
  2141     0007                     	;# 
  2142     0008                     	;# 
  2143     0009                     	;# 
  2144     000A                     	;# 
  2145     000B                     	;# 
  2146     000C                     	;# 
  2147     000D                     	;# 
  2148     000E                     	;# 
  2149     0010                     	;# 
  2150     0011                     	;# 
  2151     0012                     	;# 
  2152     0013                     	;# 
  2153     0016                     	;# 
  2154     0017                     	;# 
  2155     0018                     	;# 
  2156     001C                     	;# 
  2157     001C                     	;# 
  2158     001D                     	;# 
  2159     001D                     	;# 
  2160     001E                     	;# 
  2161     001F                     	;# 
  2162     008C                     	;# 
  2163     008C                     	;# 
  2164     008D                     	;# 
  2165     008E                     	;# 
  2166     008E                     	;# 
  2167     008F                     	;# 
  2168     0090                     	;# 
  2169     0090                     	;# 
  2170     0091                     	;# 
  2171     0093                     	;# 
  2172     0094                     	;# 
  2173     0095                     	;# 
  2174     0096                     	;# 
  2175     0097                     	;# 
  2176     0098                     	;# 
  2177     0099                     	;# 
  2178     009A                     	;# 
  2179     009B                     	;# 
  2180     009C                     	;# 
  2181     009D                     	;# 
  2182     009E                     	;# 
  2183     010C                     	;# 
  2184     010D                     	;# 
  2185     010E                     	;# 
  2186     010E                     	;# 
  2187     010F                     	;# 
  2188     0110                     	;# 
  2189     0110                     	;# 
  2190     0111                     	;# 
  2191     0112                     	;# 
  2192     0112                     	;# 
  2193     0113                     	;# 
  2194     0114                     	;# 
  2195     0114                     	;# 
  2196     0115                     	;# 
  2197     0116                     	;# 
  2198     0116                     	;# 
  2199     0117                     	;# 
  2200     0119                     	;# 
  2201     0119                     	;# 
  2202     0119                     	;# 
  2203     011A                     	;# 
  2204     011A                     	;# 
  2205     011A                     	;# 
  2206     011B                     	;# 
  2207     011B                     	;# 
  2208     011B                     	;# 
  2209     011B                     	;# 
  2210     011B                     	;# 
  2211     011C                     	;# 
  2212     011C                     	;# 
  2213     011C                     	;# 
  2214     011D                     	;# 
  2215     011D                     	;# 
  2216     011D                     	;# 
  2217     011E                     	;# 
  2218     011E                     	;# 
  2219     011E                     	;# 
  2220     011F                     	;# 
  2221     011F                     	;# 
  2222     011F                     	;# 
  2223     011F                     	;# 
  2224     011F                     	;# 
  2225     018C                     	;# 
  2226     018D                     	;# 
  2227     018E                     	;# 
  2228     018F                     	;# 
  2229     0190                     	;# 
  2230     0191                     	;# 
  2231     0192                     	;# 
  2232     0196                     	;# 
  2233     0197                     	;# 
  2234     0198                     	;# 
  2235     0199                     	;# 
  2236     019A                     	;# 
  2237     019B                     	;# 
  2238     019C                     	;# 
  2239     020C                     	;# 
  2240     020C                     	;# 
  2241     020D                     	;# 
  2242     020E                     	;# 
  2243     020F                     	;# 
  2244     020F                     	;# 
  2245     0210                     	;# 
  2246     0210                     	;# 
  2247     0211                     	;# 
  2248     0211                     	;# 
  2249     0212                     	;# 
  2250     0212                     	;# 
  2251     0213                     	;# 
  2252     0214                     	;# 
  2253     0215                     	;# 
  2254     0215                     	;# 
  2255     0216                     	;# 
  2256     0216                     	;# 
  2257     0217                     	;# 
  2258     0217                     	;# 
  2259     0218                     	;# 
  2260     0218                     	;# 
  2261     0219                     	;# 
  2262     021A                     	;# 
  2263     021B                     	;# 
  2264     021B                     	;# 
  2265     021C                     	;# 
  2266     021C                     	;# 
  2267     021D                     	;# 
  2268     021D                     	;# 
  2269     021E                     	;# 
  2270     021F                     	;# 
  2271     028C                     	;# 
  2272     028C                     	;# 
  2273     028D                     	;# 
  2274     028D                     	;# 
  2275     028E                     	;# 
  2276     028F                     	;# 
  2277     0290                     	;# 
  2278     0290                     	;# 
  2279     0291                     	;# 
  2280     0292                     	;# 
  2281     0292                     	;# 
  2282     0293                     	;# 
  2283     0293                     	;# 
  2284     0294                     	;# 
  2285     0295                     	;# 
  2286     0296                     	;# 
  2287     0296                     	;# 
  2288     0297                     	;# 
  2289     0298                     	;# 
  2290     0298                     	;# 
  2291     0299                     	;# 
  2292     0299                     	;# 
  2293     029A                     	;# 
  2294     029B                     	;# 
  2295     029C                     	;# 
  2296     029C                     	;# 
  2297     029D                     	;# 
  2298     030C                     	;# 
  2299     030C                     	;# 
  2300     030D                     	;# 
  2301     030E                     	;# 
  2302     030F                     	;# 
  2303     0310                     	;# 
  2304     0310                     	;# 
  2305     0311                     	;# 
  2306     0312                     	;# 
  2307     0313                     	;# 
  2308     0314                     	;# 
  2309     0314                     	;# 
  2310     0315                     	;# 
  2311     0316                     	;# 
  2312     0317                     	;# 
  2313     0318                     	;# 
  2314     0318                     	;# 
  2315     0319                     	;# 
  2316     031A                     	;# 
  2317     031B                     	;# 
  2318     031C                     	;# 
  2319     031C                     	;# 
  2320     031D                     	;# 
  2321     031E                     	;# 
  2322     031F                     	;# 
  2323     038C                     	;# 
  2324     038C                     	;# 
  2325     038D                     	;# 
  2326     038E                     	;# 
  2327     0390                     	;# 
  2328     0390                     	;# 
  2329     0391                     	;# 
  2330     0392                     	;# 
  2331     040C                     	;# 
  2332     040D                     	;# 
  2333     040E                     	;# 
  2334     040F                     	;# 
  2335     0410                     	;# 
  2336     0411                     	;# 
  2337     0416                     	;# 
  2338     0416                     	;# 
  2339     0417                     	;# 
  2340     0418                     	;# 
  2341     0418                     	;# 
  2342     0419                     	;# 
  2343     041A                     	;# 
  2344     041A                     	;# 
  2345     041B                     	;# 
  2346     041C                     	;# 
  2347     041C                     	;# 
  2348     041D                     	;# 
  2349     041E                     	;# 
  2350     041F                     	;# 
  2351     048C                     	;# 
  2352     048C                     	;# 
  2353     048D                     	;# 
  2354     048E                     	;# 
  2355     048F                     	;# 
  2356     048F                     	;# 
  2357     0490                     	;# 
  2358     0491                     	;# 
  2359     0492                     	;# 
  2360     0492                     	;# 
  2361     0493                     	;# 
  2362     0494                     	;# 
  2363     0495                     	;# 
  2364     0495                     	;# 
  2365     0496                     	;# 
  2366     0497                     	;# 
  2367     0498                     	;# 
  2368     0499                     	;# 
  2369     049A                     	;# 
  2370     049B                     	;# 
  2371     049C                     	;# 
  2372     049D                     	;# 
  2373     050C                     	;# 
  2374     050C                     	;# 
  2375     050D                     	;# 
  2376     050E                     	;# 
  2377     050F                     	;# 
  2378     050F                     	;# 
  2379     0510                     	;# 
  2380     0511                     	;# 
  2381     0512                     	;# 
  2382     0512                     	;# 
  2383     0513                     	;# 
  2384     0514                     	;# 
  2385     0515                     	;# 
  2386     0515                     	;# 
  2387     0516                     	;# 
  2388     0517                     	;# 
  2389     0518                     	;# 
  2390     0519                     	;# 
  2391     051A                     	;# 
  2392     051B                     	;# 
  2393     051C                     	;# 
  2394     051D                     	;# 
  2395     058C                     	;# 
  2396     058C                     	;# 
  2397     058D                     	;# 
  2398     058E                     	;# 
  2399     058F                     	;# 
  2400     058F                     	;# 
  2401     0590                     	;# 
  2402     0591                     	;# 
  2403     0592                     	;# 
  2404     0593                     	;# 
  2405     060C                     	;# 
  2406     060D                     	;# 
  2407     060E                     	;# 
  2408     060F                     	;# 
  2409     0610                     	;# 
  2410     0611                     	;# 
  2411     0612                     	;# 
  2412     0613                     	;# 
  2413     0614                     	;# 
  2414     0616                     	;# 
  2415     0617                     	;# 
  2416     0618                     	;# 
  2417     0619                     	;# 
  2418     061A                     	;# 
  2419     061B                     	;# 
  2420     061C                     	;# 
  2421     061D                     	;# 
  2422     061E                     	;# 
  2423     068C                     	;# 
  2424     068D                     	;# 
  2425     068E                     	;# 
  2426     068F                     	;# 
  2427     0690                     	;# 
  2428     0691                     	;# 
  2429     0692                     	;# 
  2430     0693                     	;# 
  2431     0694                     	;# 
  2432     070C                     	;# 
  2433     070D                     	;# 
  2434     070E                     	;# 
  2435     070F                     	;# 
  2436     0710                     	;# 
  2437     0711                     	;# 
  2438     0712                     	;# 
  2439     0713                     	;# 
  2440     0714                     	;# 
  2441     0716                     	;# 
  2442     0717                     	;# 
  2443     0718                     	;# 
  2444     0719                     	;# 
  2445     071A                     	;# 
  2446     071B                     	;# 
  2447     071C                     	;# 
  2448     071D                     	;# 
  2449     071E                     	;# 
  2450     0796                     	;# 
  2451     0797                     	;# 
  2452     0798                     	;# 
  2453     0799                     	;# 
  2454     079A                     	;# 
  2455     079B                     	;# 
  2456     080C                     	;# 
  2457     080D                     	;# 
  2458     080E                     	;# 
  2459     080F                     	;# 
  2460     0810                     	;# 
  2461     0811                     	;# 
  2462     0812                     	;# 
  2463     0813                     	;# 
  2464     0814                     	;# 
  2465     081A                     	;# 
  2466     081B                     	;# 
  2467     081C                     	;# 
  2468     081D                     	;# 
  2469     081E                     	;# 
  2470     081F                     	;# 
  2471     088C                     	;# 
  2472     088D                     	;# 
  2473     088E                     	;# 
  2474     088F                     	;# 
  2475     0890                     	;# 
  2476     0891                     	;# 
  2477     0892                     	;# 
  2478     0893                     	;# 
  2479     0895                     	;# 
  2480     0896                     	;# 
  2481     0897                     	;# 
  2482     0898                     	;# 
  2483     0899                     	;# 
  2484     089A                     	;# 
  2485     089B                     	;# 
  2486     090C                     	;# 
  2487     090E                     	;# 
  2488     090F                     	;# 
  2489     091F                     	;# 
  2490     098F                     	;# 
  2491     098F                     	;# 
  2492     0990                     	;# 
  2493     0991                     	;# 
  2494     0992                     	;# 
  2495     0993                     	;# 
  2496     0994                     	;# 
  2497     0995                     	;# 
  2498     0996                     	;# 
  2499     0997                     	;# 
  2500     0E0F                     	;# 
  2501     0E10                     	;# 
  2502     0E11                     	;# 
  2503     0E12                     	;# 
  2504     0E13                     	;# 
  2505     0E14                     	;# 
  2506     0E15                     	;# 
  2507     0E16                     	;# 
  2508     0E17                     	;# 
  2509     0E18                     	;# 
  2510     0E19                     	;# 
  2511     0E1A                     	;# 
  2512     0E1B                     	;# 
  2513     0E1C                     	;# 
  2514     0E1D                     	;# 
  2515     0E1E                     	;# 
  2516     0E1F                     	;# 
  2517     0E20                     	;# 
  2518     0E21                     	;# 
  2519     0E22                     	;# 
  2520     0E23                     	;# 
  2521     0E24                     	;# 
  2522     0E25                     	;# 
  2523     0E26                     	;# 
  2524     0E27                     	;# 
  2525     0E28                     	;# 
  2526     0E29                     	;# 
  2527     0E2A                     	;# 
  2528     0E2B                     	;# 
  2529     0E2C                     	;# 
  2530     0E2D                     	;# 
  2531     0E2E                     	;# 
  2532     0E2F                     	;# 
  2533     0E30                     	;# 
  2534     0E31                     	;# 
  2535     0E32                     	;# 
  2536     0E33                     	;# 
  2537     0E34                     	;# 
  2538     0E35                     	;# 
  2539     0E36                     	;# 
  2540     0E37                     	;# 
  2541     0E8F                     	;# 
  2542     0E90                     	;# 
  2543     0E91                     	;# 
  2544     0E92                     	;# 
  2545     0E93                     	;# 
  2546     0E94                     	;# 
  2547     0E95                     	;# 
  2548     0E96                     	;# 
  2549     0E97                     	;# 
  2550     0E9C                     	;# 
  2551     0E9D                     	;# 
  2552     0E9E                     	;# 
  2553     0EA1                     	;# 
  2554     0EA2                     	;# 
  2555     0EA3                     	;# 
  2556     0EA4                     	;# 
  2557     0EA5                     	;# 
  2558     0EA9                     	;# 
  2559     0EAA                     	;# 
  2560     0EAB                     	;# 
  2561     0EAC                     	;# 
  2562     0EB1                     	;# 
  2563     0EB2                     	;# 
  2564     0EB3                     	;# 
  2565     0EB8                     	;# 
  2566     0EB9                     	;# 
  2567     0EBA                     	;# 
  2568     0EBB                     	;# 
  2569     0EBC                     	;# 
  2570     0EBD                     	;# 
  2571     0EBE                     	;# 
  2572     0EC3                     	;# 
  2573     0EC5                     	;# 
  2574     0EC6                     	;# 
  2575     0EC7                     	;# 
  2576     0EC8                     	;# 
  2577     0EC9                     	;# 
  2578     0ECA                     	;# 
  2579     0ECB                     	;# 
  2580     0ECC                     	;# 
  2581     0F10                     	;# 
  2582     0F11                     	;# 
  2583     0F12                     	;# 
  2584     0F13                     	;# 
  2585     0F14                     	;# 
  2586     0F15                     	;# 
  2587     0F16                     	;# 
  2588     0F17                     	;# 
  2589     0F18                     	;# 
  2590     0F19                     	;# 
  2591     0F1A                     	;# 
  2592     0F1B                     	;# 
  2593     0F1C                     	;# 
  2594     0F1D                     	;# 
  2595     0F1E                     	;# 
  2596     0F1F                     	;# 
  2597     0F20                     	;# 
  2598     0F21                     	;# 
  2599     0F22                     	;# 
  2600     0F23                     	;# 
  2601     0F24                     	;# 
  2602     0F25                     	;# 
  2603     0F26                     	;# 
  2604     0F27                     	;# 
  2605     0F38                     	;# 
  2606     0F39                     	;# 
  2607     0F3A                     	;# 
  2608     0F3B                     	;# 
  2609     0F3C                     	;# 
  2610     0F3D                     	;# 
  2611     0F3E                     	;# 
  2612     0F3F                     	;# 
  2613     0F40                     	;# 
  2614     0F41                     	;# 
  2615     0F43                     	;# 
  2616     0F44                     	;# 
  2617     0F45                     	;# 
  2618     0F46                     	;# 
  2619     0F47                     	;# 
  2620     0F48                     	;# 
  2621     0F49                     	;# 
  2622     0F4A                     	;# 
  2623     0F4B                     	;# 
  2624     0F4C                     	;# 
  2625     0F4E                     	;# 
  2626     0F4F                     	;# 
  2627     0F50                     	;# 
  2628     0F51                     	;# 
  2629     0F52                     	;# 
  2630     0F53                     	;# 
  2631     0F54                     	;# 
  2632     0F55                     	;# 
  2633     0F56                     	;# 
  2634     0F57                     	;# 
  2635     0F65                     	;# 
  2636     0F68                     	;# 
  2637     0F69                     	;# 
  2638     0F6A                     	;# 
  2639     0F6B                     	;# 
  2640     0FE4                     	;# 
  2641     0FE5                     	;# 
  2642     0FE6                     	;# 
  2643     0FE7                     	;# 
  2644     0FE8                     	;# 
  2645     0FE9                     	;# 
  2646     0FEA                     	;# 
  2647     0FEB                     	;# 
  2648     0FED                     	;# 
  2649     0FEE                     	;# 
  2650     0FEF                     	;# 
  2651     0000                     	;# 
  2652     0001                     	;# 
  2653     0002                     	;# 
  2654     0003                     	;# 
  2655     0004                     	;# 
  2656     0005                     	;# 
  2657     0006                     	;# 
  2658     0007                     	;# 
  2659     0008                     	;# 
  2660     0009                     	;# 
  2661     000A                     	;# 
  2662     000B                     	;# 
  2663     000C                     	;# 
  2664     000D                     	;# 
  2665     000E                     	;# 
  2666     0010                     	;# 
  2667     0011                     	;# 
  2668     0012                     	;# 
  2669     0013                     	;# 
  2670     0016                     	;# 
  2671     0017                     	;# 
  2672     0018                     	;# 
  2673     001C                     	;# 
  2674     001C                     	;# 
  2675     001D                     	;# 
  2676     001D                     	;# 
  2677     001E                     	;# 
  2678     001F                     	;# 
  2679     008C                     	;# 
  2680     008C                     	;# 
  2681     008D                     	;# 
  2682     008E                     	;# 
  2683     008E                     	;# 
  2684     008F                     	;# 
  2685     0090                     	;# 
  2686     0090                     	;# 
  2687     0091                     	;# 
  2688     0093                     	;# 
  2689     0094                     	;# 
  2690     0095                     	;# 
  2691     0096                     	;# 
  2692     0097                     	;# 
  2693     0098                     	;# 
  2694     0099                     	;# 
  2695     009A                     	;# 
  2696     009B                     	;# 
  2697     009C                     	;# 
  2698     009D                     	;# 
  2699     009E                     	;# 
  2700     010C                     	;# 
  2701     010D                     	;# 
  2702     010E                     	;# 
  2703     010E                     	;# 
  2704     010F                     	;# 
  2705     0110                     	;# 
  2706     0110                     	;# 
  2707     0111                     	;# 
  2708     0112                     	;# 
  2709     0112                     	;# 
  2710     0113                     	;# 
  2711     0114                     	;# 
  2712     0114                     	;# 
  2713     0115                     	;# 
  2714     0116                     	;# 
  2715     0116                     	;# 
  2716     0117                     	;# 
  2717     0119                     	;# 
  2718     0119                     	;# 
  2719     0119                     	;# 
  2720     011A                     	;# 
  2721     011A                     	;# 
  2722     011A                     	;# 
  2723     011B                     	;# 
  2724     011B                     	;# 
  2725     011B                     	;# 
  2726     011B                     	;# 
  2727     011B                     	;# 
  2728     011C                     	;# 
  2729     011C                     	;# 
  2730     011C                     	;# 
  2731     011D                     	;# 
  2732     011D                     	;# 
  2733     011D                     	;# 
  2734     011E                     	;# 
  2735     011E                     	;# 
  2736     011E                     	;# 
  2737     011F                     	;# 
  2738     011F                     	;# 
  2739     011F                     	;# 
  2740     011F                     	;# 
  2741     011F                     	;# 
  2742     018C                     	;# 
  2743     018D                     	;# 
  2744     018E                     	;# 
  2745     018F                     	;# 
  2746     0190                     	;# 
  2747     0191                     	;# 
  2748     0192                     	;# 
  2749     0196                     	;# 
  2750     0197                     	;# 
  2751     0198                     	;# 
  2752     0199                     	;# 
  2753     019A                     	;# 
  2754     019B                     	;# 
  2755     019C                     	;# 
  2756     020C                     	;# 
  2757     020C                     	;# 
  2758     020D                     	;# 
  2759     020E                     	;# 
  2760     020F                     	;# 
  2761     020F                     	;# 
  2762     0210                     	;# 
  2763     0210                     	;# 
  2764     0211                     	;# 
  2765     0211                     	;# 
  2766     0212                     	;# 
  2767     0212                     	;# 
  2768     0213                     	;# 
  2769     0214                     	;# 
  2770     0215                     	;# 
  2771     0215                     	;# 
  2772     0216                     	;# 
  2773     0216                     	;# 
  2774     0217                     	;# 
  2775     0217                     	;# 
  2776     0218                     	;# 
  2777     0218                     	;# 
  2778     0219                     	;# 
  2779     021A                     	;# 
  2780     021B                     	;# 
  2781     021B                     	;# 
  2782     021C                     	;# 
  2783     021C                     	;# 
  2784     021D                     	;# 
  2785     021D                     	;# 
  2786     021E                     	;# 
  2787     021F                     	;# 
  2788     028C                     	;# 
  2789     028C                     	;# 
  2790     028D                     	;# 
  2791     028D                     	;# 
  2792     028E                     	;# 
  2793     028F                     	;# 
  2794     0290                     	;# 
  2795     0290                     	;# 
  2796     0291                     	;# 
  2797     0292                     	;# 
  2798     0292                     	;# 
  2799     0293                     	;# 
  2800     0293                     	;# 
  2801     0294                     	;# 
  2802     0295                     	;# 
  2803     0296                     	;# 
  2804     0296                     	;# 
  2805     0297                     	;# 
  2806     0298                     	;# 
  2807     0298                     	;# 
  2808     0299                     	;# 
  2809     0299                     	;# 
  2810     029A                     	;# 
  2811     029B                     	;# 
  2812     029C                     	;# 
  2813     029C                     	;# 
  2814     029D                     	;# 
  2815     030C                     	;# 
  2816     030C                     	;# 
  2817     030D                     	;# 
  2818     030E                     	;# 
  2819     030F                     	;# 
  2820     0310                     	;# 
  2821     0310                     	;# 
  2822     0311                     	;# 
  2823     0312                     	;# 
  2824     0313                     	;# 
  2825     0314                     	;# 
  2826     0314                     	;# 
  2827     0315                     	;# 
  2828     0316                     	;# 
  2829     0317                     	;# 
  2830     0318                     	;# 
  2831     0318                     	;# 
  2832     0319                     	;# 
  2833     031A                     	;# 
  2834     031B                     	;# 
  2835     031C                     	;# 
  2836     031C                     	;# 
  2837     031D                     	;# 
  2838     031E                     	;# 
  2839     031F                     	;# 
  2840     038C                     	;# 
  2841     038C                     	;# 
  2842     038D                     	;# 
  2843     038E                     	;# 
  2844     0390                     	;# 
  2845     0390                     	;# 
  2846     0391                     	;# 
  2847     0392                     	;# 
  2848     040C                     	;# 
  2849     040D                     	;# 
  2850     040E                     	;# 
  2851     040F                     	;# 
  2852     0410                     	;# 
  2853     0411                     	;# 
  2854     0416                     	;# 
  2855     0416                     	;# 
  2856     0417                     	;# 
  2857     0418                     	;# 
  2858     0418                     	;# 
  2859     0419                     	;# 
  2860     041A                     	;# 
  2861     041A                     	;# 
  2862     041B                     	;# 
  2863     041C                     	;# 
  2864     041C                     	;# 
  2865     041D                     	;# 
  2866     041E                     	;# 
  2867     041F                     	;# 
  2868     048C                     	;# 
  2869     048C                     	;# 
  2870     048D                     	;# 
  2871     048E                     	;# 
  2872     048F                     	;# 
  2873     048F                     	;# 
  2874     0490                     	;# 
  2875     0491                     	;# 
  2876     0492                     	;# 
  2877     0492                     	;# 
  2878     0493                     	;# 
  2879     0494                     	;# 
  2880     0495                     	;# 
  2881     0495                     	;# 
  2882     0496                     	;# 
  2883     0497                     	;# 
  2884     0498                     	;# 
  2885     0499                     	;# 
  2886     049A                     	;# 
  2887     049B                     	;# 
  2888     049C                     	;# 
  2889     049D                     	;# 
  2890     050C                     	;# 
  2891     050C                     	;# 
  2892     050D                     	;# 
  2893     050E                     	;# 
  2894     050F                     	;# 
  2895     050F                     	;# 
  2896     0510                     	;# 
  2897     0511                     	;# 
  2898     0512                     	;# 
  2899     0512                     	;# 
  2900     0513                     	;# 
  2901     0514                     	;# 
  2902     0515                     	;# 
  2903     0515                     	;# 
  2904     0516                     	;# 
  2905     0517                     	;# 
  2906     0518                     	;# 
  2907     0519                     	;# 
  2908     051A                     	;# 
  2909     051B                     	;# 
  2910     051C                     	;# 
  2911     051D                     	;# 
  2912     058C                     	;# 
  2913     058C                     	;# 
  2914     058D                     	;# 
  2915     058E                     	;# 
  2916     058F                     	;# 
  2917     058F                     	;# 
  2918     0590                     	;# 
  2919     0591                     	;# 
  2920     0592                     	;# 
  2921     0593                     	;# 
  2922     060C                     	;# 
  2923     060D                     	;# 
  2924     060E                     	;# 
  2925     060F                     	;# 
  2926     0610                     	;# 
  2927     0611                     	;# 
  2928     0612                     	;# 
  2929     0613                     	;# 
  2930     0614                     	;# 
  2931     0616                     	;# 
  2932     0617                     	;# 
  2933     0618                     	;# 
  2934     0619                     	;# 
  2935     061A                     	;# 
  2936     061B                     	;# 
  2937     061C                     	;# 
  2938     061D                     	;# 
  2939     061E                     	;# 
  2940     068C                     	;# 
  2941     068D                     	;# 
  2942     068E                     	;# 
  2943     068F                     	;# 
  2944     0690                     	;# 
  2945     0691                     	;# 
  2946     0692                     	;# 
  2947     0693                     	;# 
  2948     0694                     	;# 
  2949     070C                     	;# 
  2950     070D                     	;# 
  2951     070E                     	;# 
  2952     070F                     	;# 
  2953     0710                     	;# 
  2954     0711                     	;# 
  2955     0712                     	;# 
  2956     0713                     	;# 
  2957     0714                     	;# 
  2958     0716                     	;# 
  2959     0717                     	;# 
  2960     0718                     	;# 
  2961     0719                     	;# 
  2962     071A                     	;# 
  2963     071B                     	;# 
  2964     071C                     	;# 
  2965     071D                     	;# 
  2966     071E                     	;# 
  2967     0796                     	;# 
  2968     0797                     	;# 
  2969     0798                     	;# 
  2970     0799                     	;# 
  2971     079A                     	;# 
  2972     079B                     	;# 
  2973     080C                     	;# 
  2974     080D                     	;# 
  2975     080E                     	;# 
  2976     080F                     	;# 
  2977     0810                     	;# 
  2978     0811                     	;# 
  2979     0812                     	;# 
  2980     0813                     	;# 
  2981     0814                     	;# 
  2982     081A                     	;# 
  2983     081B                     	;# 
  2984     081C                     	;# 
  2985     081D                     	;# 
  2986     081E                     	;# 
  2987     081F                     	;# 
  2988     088C                     	;# 
  2989     088D                     	;# 
  2990     088E                     	;# 
  2991     088F                     	;# 
  2992     0890                     	;# 
  2993     0891                     	;# 
  2994     0892                     	;# 
  2995     0893                     	;# 
  2996     0895                     	;# 
  2997     0896                     	;# 
  2998     0897                     	;# 
  2999     0898                     	;# 
  3000     0899                     	;# 
  3001     089A                     	;# 
  3002     089B                     	;# 
  3003     090C                     	;# 
  3004     090E                     	;# 
  3005     090F                     	;# 
  3006     091F                     	;# 
  3007     098F                     	;# 
  3008     098F                     	;# 
  3009     0990                     	;# 
  3010     0991                     	;# 
  3011     0992                     	;# 
  3012     0993                     	;# 
  3013     0994                     	;# 
  3014     0995                     	;# 
  3015     0996                     	;# 
  3016     0997                     	;# 
  3017     0E0F                     	;# 
  3018     0E10                     	;# 
  3019     0E11                     	;# 
  3020     0E12                     	;# 
  3021     0E13                     	;# 
  3022     0E14                     	;# 
  3023     0E15                     	;# 
  3024     0E16                     	;# 
  3025     0E17                     	;# 
  3026     0E18                     	;# 
  3027     0E19                     	;# 
  3028     0E1A                     	;# 
  3029     0E1B                     	;# 
  3030     0E1C                     	;# 
  3031     0E1D                     	;# 
  3032     0E1E                     	;# 
  3033     0E1F                     	;# 
  3034     0E20                     	;# 
  3035     0E21                     	;# 
  3036     0E22                     	;# 
  3037     0E23                     	;# 
  3038     0E24                     	;# 
  3039     0E25                     	;# 
  3040     0E26                     	;# 
  3041     0E27                     	;# 
  3042     0E28                     	;# 
  3043     0E29                     	;# 
  3044     0E2A                     	;# 
  3045     0E2B                     	;# 
  3046     0E2C                     	;# 
  3047     0E2D                     	;# 
  3048     0E2E                     	;# 
  3049     0E2F                     	;# 
  3050     0E30                     	;# 
  3051     0E31                     	;# 
  3052     0E32                     	;# 
  3053     0E33                     	;# 
  3054     0E34                     	;# 
  3055     0E35                     	;# 
  3056     0E36                     	;# 
  3057     0E37                     	;# 
  3058     0E8F                     	;# 
  3059     0E90                     	;# 
  3060     0E91                     	;# 
  3061     0E92                     	;# 
  3062     0E93                     	;# 
  3063     0E94                     	;# 
  3064     0E95                     	;# 
  3065     0E96                     	;# 
  3066     0E97                     	;# 
  3067     0E9C                     	;# 
  3068     0E9D                     	;# 
  3069     0E9E                     	;# 
  3070     0EA1                     	;# 
  3071     0EA2                     	;# 
  3072     0EA3                     	;# 
  3073     0EA4                     	;# 
  3074     0EA5                     	;# 
  3075     0EA9                     	;# 
  3076     0EAA                     	;# 
  3077     0EAB                     	;# 
  3078     0EAC                     	;# 
  3079     0EB1                     	;# 
  3080     0EB2                     	;# 
  3081     0EB3                     	;# 
  3082     0EB8                     	;# 
  3083     0EB9                     	;# 
  3084     0EBA                     	;# 
  3085     0EBB                     	;# 
  3086     0EBC                     	;# 
  3087     0EBD                     	;# 
  3088     0EBE                     	;# 
  3089     0EC3                     	;# 
  3090     0EC5                     	;# 
  3091     0EC6                     	;# 
  3092     0EC7                     	;# 
  3093     0EC8                     	;# 
  3094     0EC9                     	;# 
  3095     0ECA                     	;# 
  3096     0ECB                     	;# 
  3097     0ECC                     	;# 
  3098     0F10                     	;# 
  3099     0F11                     	;# 
  3100     0F12                     	;# 
  3101     0F13                     	;# 
  3102     0F14                     	;# 
  3103     0F15                     	;# 
  3104     0F16                     	;# 
  3105     0F17                     	;# 
  3106     0F18                     	;# 
  3107     0F19                     	;# 
  3108     0F1A                     	;# 
  3109     0F1B                     	;# 
  3110     0F1C                     	;# 
  3111     0F1D                     	;# 
  3112     0F1E                     	;# 
  3113     0F1F                     	;# 
  3114     0F20                     	;# 
  3115     0F21                     	;# 
  3116     0F22                     	;# 
  3117     0F23                     	;# 
  3118     0F24                     	;# 
  3119     0F25                     	;# 
  3120     0F26                     	;# 
  3121     0F27                     	;# 
  3122     0F38                     	;# 
  3123     0F39                     	;# 
  3124     0F3A                     	;# 
  3125     0F3B                     	;# 
  3126     0F3C                     	;# 
  3127     0F3D                     	;# 
  3128     0F3E                     	;# 
  3129     0F3F                     	;# 
  3130     0F40                     	;# 
  3131     0F41                     	;# 
  3132     0F43                     	;# 
  3133     0F44                     	;# 
  3134     0F45                     	;# 
  3135     0F46                     	;# 
  3136     0F47                     	;# 
  3137     0F48                     	;# 
  3138     0F49                     	;# 
  3139     0F4A                     	;# 
  3140     0F4B                     	;# 
  3141     0F4C                     	;# 
  3142     0F4E                     	;# 
  3143     0F4F                     	;# 
  3144     0F50                     	;# 
  3145     0F51                     	;# 
  3146     0F52                     	;# 
  3147     0F53                     	;# 
  3148     0F54                     	;# 
  3149     0F55                     	;# 
  3150     0F56                     	;# 
  3151     0F57                     	;# 
  3152     0F65                     	;# 
  3153     0F68                     	;# 
  3154     0F69                     	;# 
  3155     0F6A                     	;# 
  3156     0F6B                     	;# 
  3157     0FE4                     	;# 
  3158     0FE5                     	;# 
  3159     0FE6                     	;# 
  3160     0FE7                     	;# 
  3161     0FE8                     	;# 
  3162     0FE9                     	;# 
  3163     0FEA                     	;# 
  3164     0FEB                     	;# 
  3165     0FED                     	;# 
  3166     0FEE                     	;# 
  3167     0FEF                     	;# 
  3168                           
  3169                           	psect	stringtext1
  3170     0263                     __pstringtext1:
  3171     0263                     _startup_anime_code:
  3172     0263  3400               	retlw	0
  3173     0264  3400               	retlw	0
  3174     0265  3400               	retlw	0
  3175     0266  3428               	retlw	40
  3176     0267  3400               	retlw	0
  3177     0268  3400               	retlw	0
  3178     0269  3480               	retlw	128
  3179     026A  3480               	retlw	128
  3180     026B  3400               	retlw	0
  3181     026C  3480               	retlw	128
  3182     026D  3480               	retlw	128
  3183     026E  3400               	retlw	0
  3184     026F  3480               	retlw	128
  3185     0270  3480               	retlw	128
  3186     0271  3400               	retlw	0
  3187     0272  3400               	retlw	0
  3188     0273  34C0               	retlw	192
  3189     0274  3400               	retlw	0
  3190     0275  3400               	retlw	0
  3191     0276  3400               	retlw	0
  3192     0277  3441               	retlw	65
  3193     0278  3400               	retlw	0
  3194     0279  3400               	retlw	0
  3195     027A  3400               	retlw	0
  3196     027B  3403               	retlw	3
  3197     027C  3400               	retlw	0
  3198     027D  3400               	retlw	0
  3199     027E  3400               	retlw	0
  3200     027F  3402               	retlw	2
  3201     0280  3402               	retlw	2
  3202     0281  3400               	retlw	0
  3203     0282  3400               	retlw	0
  3204     0283  3400               	retlw	0
  3205     0284  3402               	retlw	2
  3206     0285  3402               	retlw	2
  3207     0286  3400               	retlw	0
  3208     0287  3400               	retlw	0
  3209     0288  3400               	retlw	0
  3210     0289  3402               	retlw	2
  3211     028A  3402               	retlw	2
  3212     028B  3400               	retlw	0
  3213     028C  3400               	retlw	0
  3214     028D  3400               	retlw	0
  3215     028E  340A               	retlw	10
  3216     028F                     __end_of_startup_anime_code:
  3217                           
  3218                           	psect	stringtext2
  3219     0384                     __pstringtext2:
  3220     0384                     __table_encoded:
  3221     0384  34EB               	retlw	235
  3222     0385  3428               	retlw	40
  3223     0386  34B3               	retlw	179
  3224     0387  34BA               	retlw	186
  3225     0388  3478               	retlw	120
  3226     0389  34DA               	retlw	218
  3227     038A  34DB               	retlw	219
  3228     038B  34A8               	retlw	168
  3229     038C  34FB               	retlw	251
  3230     038D  34FA               	retlw	250
  3231     038E  34F9               	retlw	249
  3232     038F  345B               	retlw	91
  3233     0390  34C3               	retlw	195
  3234     0391  343B               	retlw	59
  3235     0392  34DE               	retlw	222
  3236     0393  3447               	retlw	71
  3237     0394  343F               	retlw	63
  3238     0395                     __end_of__table_encoded:
  3239                           
  3240                           	psect	stringtext3
  3241     039E                     __pstringtext3:
  3242     039E                     __table_seg_select:
  3243     039E  34FE               	retlw	254
  3244     039F  34FD               	retlw	253
  3245     03A0  34FB               	retlw	251
  3246     03A1  34F7               	retlw	247
  3247     03A2                     __end_of__table_seg_select:
  3248                           
  3249                           	psect	nvBANK0
  3250     0035                     __pnvBANK0:
  3251     0035                     _rcnt:
  3252     0035                     	ds	1
  3253     000C                     _PORTA	set	12
  3254     0011                     _TRISA	set	17
  3255     0018                     _LATC	set	24
  3256     0017                     _LATB	set	23
  3257     001F                     _T0CON1	set	31
  3258     001E                     _T0CON0	set	30
  3259     000B                     _INTCONbits	set	11
  3260     0012                     _TRISB	set	18
  3261     0013                     _TRISC	set	19
  3262     001C                     _TMR0L	set	28
  3263     001D                     _TMR0H	set	29
  3264     008C                     _ADRESL	set	140
  3265     008D                     _ADRESH	set	141
  3266     009E                     _ADPCHbits	set	158
  3267     009D                     _ADACQ	set	157
  3268     009C                     _ADPRE	set	156
  3269     0094                     _ADCON1	set	148
  3270     0093                     _ADCON0bits	set	147
  3271     0098                     _ADCLKbits	set	152
  3272     009A                     _ADREFbits	set	154
  3273     0716                     _PIE0bits	set	1814
  3274     070C                     _PIR0bits	set	1804
  3275     081F                     _NVMCON2	set	2079
  3276     081A                     _NVMADRL	set	2074
  3277     081B                     _NVMADRH	set	2075
  3278     081E                     _NVMCON1bits	set	2078
  3279     081C                     _NVMDATL	set	2076
  3280     090C                     _FVRCONbits	set	2316
  3281     0F38                     _ANSELA	set	3896
  3282     0F39                     _WPUA	set	3897
  3283                           
  3284                           	psect	cinit
  3285     001C                     start_initialization:	
  3286                           ; #config settings
  3287                           
  3288     001C                     __initialization:
  3289                           
  3290                           ; Clear objects allocated to COMMON
  3291     001C  01F8               	clrf	__pbssCOMMON& (0+127)
  3292     001D  01F9               	clrf	(__pbssCOMMON+1)& (0+127)
  3293     001E  01FA               	clrf	(__pbssCOMMON+2)& (0+127)
  3294                           
  3295                           ; Clear objects allocated to BANK0
  3296     001F  0020               	movlb	0	; select bank0
  3297     0020  01AD               	clrf	__pbssBANK0& (0+127)
  3298     0021  01AE               	clrf	(__pbssBANK0+1)& (0+127)
  3299     0022  01AF               	clrf	(__pbssBANK0+2)& (0+127)
  3300     0023  01B0               	clrf	(__pbssBANK0+3)& (0+127)
  3301     0024  01B1               	clrf	(__pbssBANK0+4)& (0+127)
  3302     0025  01B2               	clrf	(__pbssBANK0+5)& (0+127)
  3303     0026  01B3               	clrf	(__pbssBANK0+6)& (0+127)
  3304     0027  01B4               	clrf	(__pbssBANK0+7)& (0+127)
  3305     0028                     end_of_initialization:	
  3306                           ;End of C runtime variable initialization code
  3307                           
  3308     0028                     __end_of__initialization:
  3309     0028  107E               	bcf	int$flags,0	;clear compiler interrupt flag (level 1)
  3310     0029  0020               	movlb	0
  3311     002A  3180  282C         	ljmp	_main	;jump to C main() function
  3312                           
  3313                           	psect	bssCOMMON
  3314     0078                     __pbssCOMMON:
  3315     0078                     _seg_idx:
  3316     0078                     	ds	1
  3317     0079                     _key_buffer:
  3318     0079                     	ds	1
  3319     007A                     _curr_key:
  3320     007A                     	ds	1
  3321                           
  3322                           	psect	bssBANK0
  3323     002D                     __pbssBANK0:
  3324     002D                     _seg_buffer:
  3325     002D                     	ds	4
  3326     0031                     _w_tmp:
  3327     0031                     	ds	1
  3328     0032                     _seg_flash:
  3329     0032                     	ds	1
  3330     0033                     _touch_key_buffer:
  3331     0033                     	ds	1
  3332     0034                     _pcnt:
  3333     0034                     	ds	1
  3334                           
  3335                           	psect	cstackCOMMON
  3336     0070                     __pcstackCOMMON:
  3337     0070                     ?_seg_display_func:
  3338     0070                     ??_seg_display_func:	
  3339                           ; 1 bytes @ 0x0
  3340                           
  3341     0070                     ?_scan_func:	
  3342                           ; 1 bytes @ 0x0
  3343                           
  3344     0070                     ?_load_seg_buffer:	
  3345                           ; 1 bytes @ 0x0
  3346                           
  3347     0070                     ?_store_seg_buffer:	
  3348                           ; 1 bytes @ 0x0
  3349                           
  3350     0070                     ?_polling_func:	
  3351                           ; 1 bytes @ 0x0
  3352                           
  3353     0070                     ??_polling_func:	
  3354                           ; 1 bytes @ 0x0
  3355                           
  3356     0070                     ?_single_click_func:	
  3357                           ; 1 bytes @ 0x0
  3358                           
  3359     0070                     ??_single_click_func:	
  3360                           ; 1 bytes @ 0x0
  3361                           
  3362     0070                     ?_long_click_func:	
  3363                           ; 1 bytes @ 0x0
  3364                           
  3365     0070                     ??_long_click_func:	
  3366                           ; 1 bytes @ 0x0
  3367                           
  3368     0070                     ?_double_click_func:	
  3369                           ; 1 bytes @ 0x0
  3370                           
  3371     0070                     ??_double_click_func:	
  3372                           ; 1 bytes @ 0x0
  3373                           
  3374     0070                     ?_irs_routine:	
  3375                           ; 1 bytes @ 0x0
  3376                           
  3377     0070                     ?_main:	
  3378                           ; 1 bytes @ 0x0
  3379                           
  3380     0070                     polling_func@w_tmp:	
  3381                           ; 1 bytes @ 0x0
  3382                           
  3383                           
  3384                           ; 1 bytes @ 0x0
  3385     0070                     	ds	1
  3386     0071                     polling_func@mask:
  3387     0071                     double_click_func@pre_key:	
  3388                           ; 1 bytes @ 0x1
  3389                           
  3390                           
  3391                           ; 1 bytes @ 0x1
  3392     0071                     	ds	1
  3393     0072                     ??_scan_func:
  3394                           
  3395                           ; 1 bytes @ 0x2
  3396     0072                     	ds	1
  3397     0073                     ??_irs_routine:
  3398     0073                     ?_store_eeprom_func:	
  3399                           ; 1 bytes @ 0x3
  3400                           
  3401     0073                     ?_load_from_eeprom_func:	
  3402                           ; 1 bytes @ 0x3
  3403                           
  3404     0073                     ?_scan_touch_key_func:	
  3405                           ; 1 bytes @ 0x3
  3406                           
  3407     0073                     ?___wmul:	
  3408                           ; 2 bytes @ 0x3
  3409                           
  3410     0073                     ?___awmod:	
  3411                           ; 2 bytes @ 0x3
  3412                           
  3413     0073                     store_eeprom_func@addr:	
  3414                           ; 2 bytes @ 0x3
  3415                           
  3416     0073                     load_from_eeprom_func@addr:	
  3417                           ; 2 bytes @ 0x3
  3418                           
  3419     0073                     ___wmul@multiplier:	
  3420                           ; 2 bytes @ 0x3
  3421                           
  3422     0073                     ___awmod@divisor:	
  3423                           ; 2 bytes @ 0x3
  3424                           
  3425                           
  3426                           ; 2 bytes @ 0x3
  3427     0073                     	ds	2
  3428     0075                     ??_scan_touch_key_func:
  3429     0075                     ??_load_seg_buffer:	
  3430                           ; 1 bytes @ 0x5
  3431                           
  3432     0075                     ??_store_eeprom_func:	
  3433                           ; 1 bytes @ 0x5
  3434                           
  3435     0075                     ??_load_from_eeprom_func:	
  3436                           ; 1 bytes @ 0x5
  3437                           
  3438     0075                     store_eeprom_func@data:	
  3439                           ; 1 bytes @ 0x5
  3440                           
  3441     0075                     ___wmul@multiplicand:	
  3442                           ; 1 bytes @ 0x5
  3443                           
  3444     0075                     ___awmod@dividend:	
  3445                           ; 2 bytes @ 0x5
  3446                           
  3447                           
  3448                           ; 2 bytes @ 0x5
  3449     0075                     	ds	1
  3450     0076                     ??_store_seg_buffer:
  3451                           
  3452                           ; 1 bytes @ 0x6
  3453     0076                     	ds	1
  3454     0077                     ??___wmul:
  3455     0077                     ??___awmod:	
  3456                           ; 1 bytes @ 0x7
  3457                           
  3458                           
  3459                           ; 1 bytes @ 0x7
  3460     0077                     	ds	1
  3461                           
  3462                           	psect	cstackBANK0
  3463     0020                     __pcstackBANK0:
  3464     0020                     ___awmod@counter:
  3465     0020                     scan_touch_key_func@i:	
  3466                           ; 1 bytes @ 0x0
  3467                           
  3468     0020                     ___wmul@product:	
  3469                           ; 2 bytes @ 0x0
  3470                           
  3471                           
  3472                           ; 2 bytes @ 0x0
  3473     0020                     	ds	1
  3474     0021                     ___awmod@sign:
  3475                           
  3476                           ; 1 bytes @ 0x1
  3477     0021                     	ds	1
  3478     0022                     ?_seg_startup_anime:
  3479     0022                     seg_startup_anime@times:	
  3480                           ; 1 bytes @ 0x2
  3481                           
  3482     0022                     scan_touch_key_func@key:	
  3483                           ; 2 bytes @ 0x2
  3484                           
  3485                           
  3486                           ; 2 bytes @ 0x2
  3487     0022                     	ds	2
  3488     0024                     ??_seg_startup_anime:
  3489     0024                     scan_touch_key_func@adcres:	
  3490                           ; 1 bytes @ 0x4
  3491                           
  3492                           
  3493                           ; 2 bytes @ 0x4
  3494     0024                     	ds	2
  3495     0026                     scan_touch_key_func@port:
  3496                           
  3497                           ; 1 bytes @ 0x6
  3498     0026                     	ds	2
  3499     0028                     seg_startup_anime@i:
  3500                           
  3501                           ; 2 bytes @ 0x8
  3502     0028                     	ds	2
  3503     002A                     ??_main:
  3504                           
  3505                           ; 1 bytes @ 0xA
  3506     002A                     	ds	1
  3507     002B                     main@key:
  3508                           
  3509                           ; 2 bytes @ 0xB
  3510     002B                     	ds	2
  3511                           
  3512                           	psect	maintext
  3513     002C                     __pmaintext:	
  3514 ;;
  3515 ;;Main: autosize = 0, tempsize = 1, incstack = 0, save=0
  3516 ;;
  3517 ;; *************** function _main *****************
  3518 ;; Defined at:
  3519 ;;		line 21 in file "main.c"
  3520 ;; Parameters:    Size  Location     Type
  3521 ;;		None
  3522 ;; Auto vars:     Size  Location     Type
  3523 ;;  key             2   11[BANK0 ] int 
  3524 ;; Return value:  Size  Location     Type
  3525 ;;                  1    wreg      void 
  3526 ;; Registers used:
  3527 ;;		wreg, fsr0l, fsr0h, fsr1l, fsr1h, status,2, status,0, pclath, cstack
  3528 ;; Tracked objects:
  3529 ;;		On entry : B1F/0
  3530 ;;		On exit  : 0/0
  3531 ;;		Unchanged: 0/0
  3532 ;; Data sizes:     COMMON   BANK0   BANK1   BANK2   BANK3   BANK4   BANK5   BANK6
  3533 ;;      Params:         0       0       0       0       0       0       0       0
  3534 ;;      Locals:         0       2       0       0       0       0       0       0
  3535 ;;      Temps:          0       1       0       0       0       0       0       0
  3536 ;;      Totals:         0       3       0       0       0       0       0       0
  3537 ;;Total ram usage:        3 bytes
  3538 ;; Hardware stack levels required when called: 6
  3539 ;; This function calls:
  3540 ;;		_load_seg_buffer
  3541 ;;		_scan_touch_key_func
  3542 ;;		_seg_startup_anime
  3543 ;;		_store_seg_buffer
  3544 ;; This function is called by:
  3545 ;;		Startup code after reset
  3546 ;; This function uses a non-reentrant model
  3547 ;;
  3548                           
  3549     002C                     _main:	
  3550                           ;psect for function _main
  3551                           
  3552     002C                     l1660:	
  3553                           ;incstack = 0
  3554                           ; Regs used in _main: [wreg-fsr1h+status,2+status,0+pclath+cstack]
  3555                           
  3556                           
  3557                           ;main.c: 24:     WPUA = 0x0f;
  3558     002C  300F               	movlw	15
  3559     002D  003E               	movlb	30	; select bank30
  3560     002E  00B9               	movwf	57	;volatile
  3561     002F                     l1662:
  3562                           
  3563                           ;main.c: 25:     ANSELA = 0x00;
  3564     002F  01B8               	clrf	56	;volatile
  3565     0030                     l1664:
  3566                           
  3567                           ;main.c: 28:     TRISC = 0x00;
  3568     0030  0020               	movlb	0	; select bank0
  3569     0031  0193               	clrf	19	;volatile
  3570     0032                     l1666:
  3571                           
  3572                           ;main.c: 29:     TRISB = 0x00;
  3573     0032  0192               	clrf	18	;volatile
  3574     0033                     l1668:
  3575                           
  3576                           ;main.c: 32:     INTCONbits.GIE = 1;
  3577     0033  178B               	bsf	11,7	;volatile
  3578     0034                     l1670:
  3579                           
  3580                           ;main.c: 33:     PIE0bits.TMR0IE = 1;
  3581     0034  002E               	movlb	14	; select bank14
  3582     0035  1696               	bsf	22,5	;volatile
  3583     0036                     l1672:
  3584                           
  3585                           ;main.c: 36:     T0CON0 = 0x90;
  3586     0036  3090               	movlw	144
  3587     0037  0020               	movlb	0	; select bank0
  3588     0038  009E               	movwf	30	;volatile
  3589     0039                     l1674:
  3590                           
  3591                           ;main.c: 37:     T0CON1 = 0x50;
  3592     0039  3050               	movlw	80
  3593     003A  009F               	movwf	31	;volatile
  3594     003B                     l1676:
  3595                           
  3596                           ;main.c: 41:     rcnt = 0xff;
  3597     003B  30FF               	movlw	255
  3598     003C  00B5               	movwf	_rcnt
  3599                           
  3600                           ;main.c: 42:     pcnt = 0x00;
  3601     003D  01B4               	clrf	_pcnt
  3602     003E                     l1678:
  3603                           
  3604                           ;main.c: 45:     ADREFbits.ADPREF = 0b00;
  3605     003E  30FC               	movlw	-4
  3606     003F  0021               	movlb	1	; select bank1
  3607     0040  059A               	andwf	26,f	;volatile
  3608     0041                     l1680:
  3609                           
  3610                           ;main.c: 46:     ADREFbits.ADNREF = 0b0;
  3611     0041  121A               	bcf	26,4	;volatile
  3612     0042                     l1682:
  3613                           
  3614                           ;main.c: 48:     ADCLKbits.ADCCS = 0b000000;
  3615     0042  30C0               	movlw	-64
  3616     0043  0598               	andwf	24,f	;volatile
  3617     0044                     l1684:
  3618                           
  3619                           ;main.c: 50:     ADCON0bits.ADON = 0b1;
  3620     0044  1793               	bsf	19,7	;volatile
  3621     0045                     l1686:
  3622                           
  3623                           ;main.c: 51:     ADCON0bits.ADCONT = 0b0;
  3624     0045  1313               	bcf	19,6	;volatile
  3625     0046                     l1688:
  3626                           
  3627                           ;main.c: 52:     ADCON0bits.ADCS = 0b0;
  3628     0046  1213               	bcf	19,4	;volatile
  3629     0047                     l1690:
  3630                           
  3631                           ;main.c: 53:     ADCON0bits.ADFRM0 = 0b1;
  3632     0047  1513               	bsf	19,2	;volatile
  3633     0048                     l1692:
  3634                           
  3635                           ;main.c: 55:     ADCON1 = 0x80;
  3636     0048  3080               	movlw	128
  3637     0049  0094               	movwf	20	;volatile
  3638     004A                     l1694:
  3639                           
  3640                           ;main.c: 56:     ADPRE = 0x0f;
  3641     004A  300F               	movlw	15
  3642     004B  009C               	movwf	28	;volatile
  3643     004C                     l1696:
  3644                           
  3645                           ;main.c: 57:     ADACQ = 0x0f;
  3646     004C  300F               	movlw	15
  3647     004D  009D               	movwf	29	;volatile
  3648     004E                     l1698:
  3649                           
  3650                           ;main.c: 60:     seg_startup_anime(2);
  3651     004E  3002               	movlw	2
  3652     004F  0020               	movlb	0	; select bank0
  3653     0050  00A2               	movwf	seg_startup_anime@times
  3654     0051  3000               	movlw	0
  3655     0052  00A3               	movwf	seg_startup_anime@times+1
  3656     0053  3181  2122  3180   	fcall	_seg_startup_anime
  3657     0056                     l1700:
  3658                           
  3659                           ;main.c: 63:     seg_buffer[0] = _table_encoded[0];
  3660     0056  3084               	movlw	low (__table_encoded| (0+32768))
  3661     0057  0084               	movwf	4
  3662     0058  3083               	movlw	high (__table_encoded| (0+32768))
  3663     0059  0085               	movwf	5
  3664     005A  0800               	movf	0,w	;code access
  3665     005B  0020               	movlb	0	; select bank0
  3666     005C  00AD               	movwf	_seg_buffer
  3667     005D                     l1702:
  3668                           
  3669                           ;main.c: 64:     seg_buffer[1] = _table_encoded[0];
  3670     005D  3084               	movlw	low (__table_encoded| (0+32768))
  3671     005E  0084               	movwf	4
  3672     005F  3083               	movlw	high (__table_encoded| (0+32768))
  3673     0060  0085               	movwf	5
  3674     0061  0800               	movf	0,w	;code access
  3675     0062  00AE               	movwf	_seg_buffer+1
  3676     0063                     l1704:
  3677                           
  3678                           ;main.c: 65:     seg_buffer[2] = _table_encoded[0];
  3679     0063  3084               	movlw	low (__table_encoded| (0+32768))
  3680     0064  0084               	movwf	4
  3681     0065  3083               	movlw	high (__table_encoded| (0+32768))
  3682     0066  0085               	movwf	5
  3683     0067  0800               	movf	0,w	;code access
  3684     0068  00AF               	movwf	_seg_buffer+2
  3685     0069                     l1706:
  3686                           
  3687                           ;main.c: 66:     seg_buffer[3] = _table_encoded[0];
  3688     0069  3084               	movlw	low (__table_encoded| (0+32768))
  3689     006A  0084               	movwf	4
  3690     006B  3083               	movlw	high (__table_encoded| (0+32768))
  3691     006C  0085               	movwf	5
  3692     006D  0800               	movf	0,w	;code access
  3693     006E  00B0               	movwf	_seg_buffer+3
  3694     006F                     l1708:
  3695                           
  3696                           ;main.c: 67:     seg_flash = 0b00001000;
  3697     006F  3008               	movlw	8
  3698     0070  00B2               	movwf	_seg_flash
  3699     0071                     l1710:
  3700     0071                     l1712:
  3701                           
  3702                           ;main.c: 73:         key = scan_touch_key_func();
  3703     0071  3180  20B1  3180   	fcall	_scan_touch_key_func
  3704     0074  0874               	movf	?_scan_touch_key_func+1,w
  3705     0075  0020               	movlb	0	; select bank0
  3706     0076  00AC               	movwf	main@key+1
  3707     0077  0873               	movf	?_scan_touch_key_func,w
  3708     0078  00AB               	movwf	main@key
  3709     0079                     l1714:
  3710                           
  3711                           ;main.c: 74:         if (key == 1){
  3712     0079  032B               	decf	main@key,w
  3713     007A  042C               	iorwf	main@key+1,w
  3714     007B  1D03               	btfss	3,2
  3715     007C  287E               	goto	u971
  3716     007D  287F               	goto	u970
  3717     007E                     u971:
  3718     007E  2889               	goto	l1720
  3719     007F                     u970:
  3720     007F                     l1716:
  3721                           
  3722                           ;main.c: 75:             load_seg_buffer();
  3723     007F  3183  2302  3180   	fcall	_load_seg_buffer
  3724     0082                     l1718:
  3725                           
  3726                           ;main.c: 76:             seg_buffer[3] = _table_encoded[15];
  3727     0082  3093               	movlw	low ((__table_encoded+15)| (0+32768))
  3728     0083  0084               	movwf	4
  3729     0084  3083               	movlw	high ((__table_encoded+15)| (0+32768))
  3730     0085  0085               	movwf	5
  3731     0086  0800               	movf	0,w	;code access
  3732     0087  0020               	movlb	0	; select bank0
  3733     0088  00B0               	movwf	_seg_buffer+3
  3734     0089                     l1720:
  3735                           
  3736                           ;main.c: 78:         if (key == 0)
  3737     0089  082B               	movf	main@key,w
  3738     008A  042C               	iorwf	main@key+1,w
  3739     008B  1D03               	btfss	3,2
  3740     008C  288E               	goto	u981
  3741     008D  288F               	goto	u980
  3742     008E                     u981:
  3743     008E  2893               	goto	l85
  3744     008F                     u980:
  3745     008F                     l1722:
  3746                           
  3747                           ;main.c: 79:         {;main.c: 80:             seg_flash ^= 0b00001000;
  3748     008F  3008               	movlw	8
  3749     0090  00AA               	movwf	??_main
  3750     0091  082A               	movf	??_main,w
  3751     0092  06B2               	xorwf	_seg_flash,f
  3752     0093                     l85:	
  3753                           ;main.c: 81:         }
  3754                           
  3755                           
  3756                           ;main.c: 82:         if (key == -1)
  3757     0093  0A2B               	incf	main@key,w
  3758     0094  1D03               	skipz
  3759     0095  289A               	goto	u991
  3760     0096  0A2C               	incf	main@key+1,w
  3761     0097  1D03               	btfss	3,2
  3762     0098  289A               	goto	u991
  3763     0099  289B               	goto	u990
  3764     009A                     u991:
  3765     009A  28A5               	goto	l1728
  3766     009B                     u990:
  3767     009B                     l1724:
  3768                           
  3769                           ;main.c: 83:         {;main.c: 84:             store_seg_buffer();
  3770     009B  3182  22DD  3180   	fcall	_store_seg_buffer
  3771     009E                     l1726:
  3772                           
  3773                           ;main.c: 85:             seg_buffer[3] = _table_encoded[14];
  3774     009E  3092               	movlw	low ((__table_encoded+14)| (0+32768))
  3775     009F  0084               	movwf	4
  3776     00A0  3083               	movlw	high ((__table_encoded+14)| (0+32768))
  3777     00A1  0085               	movwf	5
  3778     00A2  0800               	movf	0,w	;code access
  3779     00A3  0020               	movlb	0	; select bank0
  3780     00A4  00B0               	movwf	_seg_buffer+3
  3781     00A5                     l1728:
  3782                           
  3783                           ;main.c: 87:          _delay(4000);
  3784     00A5  3006               	movlw	6
  3785     00A6  0020               	movlb	0	; select bank0
  3786     00A7  00AA               	movwf	??_main
  3787     00A8  3030               	movlw	48
  3788     00A9                     u1007:
  3789     00A9  0B89               	decfsz	9,f
  3790     00AA  28A9               	goto	u1007
  3791     00AB  0BAA               	decfsz	??_main,f
  3792     00AC  28A9               	goto	u1007
  3793     00AD  0000               	nop
  3794     00AE  2871               	goto	l1712
  3795     00AF  3180  281A         	ljmp	start
  3796     00B1                     __end_of_main:
  3797                           
  3798                           	psect	text1
  3799     02DD                     __ptext1:	
  3800 ;; *************** function _store_seg_buffer *****************
  3801 ;; Defined at:
  3802 ;;		line 41 in file "eeprom.c"
  3803 ;; Parameters:    Size  Location     Type
  3804 ;;		None
  3805 ;; Auto vars:     Size  Location     Type
  3806 ;;		None
  3807 ;; Return value:  Size  Location     Type
  3808 ;;                  1    wreg      void 
  3809 ;; Registers used:
  3810 ;;		wreg, status,2, status,0, pclath, cstack
  3811 ;; Tracked objects:
  3812 ;;		On entry : 0/0
  3813 ;;		On exit  : 0/0
  3814 ;;		Unchanged: 0/0
  3815 ;; Data sizes:     COMMON   BANK0   BANK1   BANK2   BANK3   BANK4   BANK5   BANK6
  3816 ;;      Params:         0       0       0       0       0       0       0       0
  3817 ;;      Locals:         0       0       0       0       0       0       0       0
  3818 ;;      Temps:          0       0       0       0       0       0       0       0
  3819 ;;      Totals:         0       0       0       0       0       0       0       0
  3820 ;;Total ram usage:        0 bytes
  3821 ;; Hardware stack levels used: 1
  3822 ;; Hardware stack levels required when called: 5
  3823 ;; This function calls:
  3824 ;;		_store_eeprom_func
  3825 ;; This function is called by:
  3826 ;;		_main
  3827 ;; This function uses a non-reentrant model
  3828 ;;
  3829                           
  3830     02DD                     _store_seg_buffer:	
  3831                           ;psect for function _store_seg_buffer
  3832                           
  3833     02DD                     l1504:	
  3834                           ;incstack = 0
  3835                           ; Regs used in _store_seg_buffer: [wreg+status,2+status,0+pclath+cstack]
  3836                           
  3837                           
  3838                           ;eeprom.c: 43:     store_eeprom_func(seg_buffer[0], (short)0xf000);
  3839     02DD  3000               	movlw	0
  3840     02DE  00F3               	movwf	store_eeprom_func@addr
  3841     02DF  30F0               	movlw	240
  3842     02E0  00F4               	movwf	store_eeprom_func@addr+1
  3843     02E1  0020               	movlb	0	; select bank0
  3844     02E2  082D               	movf	_seg_buffer,w
  3845     02E3  3183  2349  3182   	fcall	_store_eeprom_func
  3846                           
  3847                           ;eeprom.c: 44:     store_eeprom_func(seg_buffer[1], (short)0xf001);
  3848     02E6  3001               	movlw	1
  3849     02E7  00F3               	movwf	store_eeprom_func@addr
  3850     02E8  30F0               	movlw	240
  3851     02E9  00F4               	movwf	store_eeprom_func@addr+1
  3852     02EA  0020               	movlb	0	; select bank0
  3853     02EB  082E               	movf	_seg_buffer+1,w
  3854     02EC  3183  2349  3182   	fcall	_store_eeprom_func
  3855                           
  3856                           ;eeprom.c: 45:     store_eeprom_func(seg_buffer[2], (short)0xf002);
  3857     02EF  3002               	movlw	2
  3858     02F0  00F3               	movwf	store_eeprom_func@addr
  3859     02F1  30F0               	movlw	240
  3860     02F2  00F4               	movwf	store_eeprom_func@addr+1
  3861     02F3  0020               	movlb	0	; select bank0
  3862     02F4  082F               	movf	_seg_buffer+2,w
  3863     02F5  3183  2349  3182   	fcall	_store_eeprom_func
  3864                           
  3865                           ;eeprom.c: 46:     store_eeprom_func(seg_buffer[3], (short)0xf003);
  3866     02F8  3003               	movlw	3
  3867     02F9  00F3               	movwf	store_eeprom_func@addr
  3868     02FA  30F0               	movlw	240
  3869     02FB  00F4               	movwf	store_eeprom_func@addr+1
  3870     02FC  0020               	movlb	0	; select bank0
  3871     02FD  0830               	movf	_seg_buffer+3,w
  3872     02FE  3183  2349  3182   	fcall	_store_eeprom_func
  3873     0301                     l275:
  3874     0301  0008               	return
  3875     0302                     __end_of_store_seg_buffer:
  3876                           
  3877                           	psect	text2
  3878     0349                     __ptext2:	
  3879 ;; *************** function _store_eeprom_func *****************
  3880 ;; Defined at:
  3881 ;;		line 3 in file "eeprom.c"
  3882 ;; Parameters:    Size  Location     Type
  3883 ;;  data            1    wreg     unsigned char 
  3884 ;;  addr            2    3[COMMON] short 
  3885 ;; Auto vars:     Size  Location     Type
  3886 ;;  data            1    5[COMMON] unsigned char 
  3887 ;; Return value:  Size  Location     Type
  3888 ;;                  1    wreg      void 
  3889 ;; Registers used:
  3890 ;;		wreg, status,2
  3891 ;; Tracked objects:
  3892 ;;		On entry : 0/0
  3893 ;;		On exit  : 0/0
  3894 ;;		Unchanged: 0/0
  3895 ;; Data sizes:     COMMON   BANK0   BANK1   BANK2   BANK3   BANK4   BANK5   BANK6
  3896 ;;      Params:         2       0       0       0       0       0       0       0
  3897 ;;      Locals:         1       0       0       0       0       0       0       0
  3898 ;;      Temps:          0       0       0       0       0       0       0       0
  3899 ;;      Totals:         3       0       0       0       0       0       0       0
  3900 ;;Total ram usage:        3 bytes
  3901 ;; Hardware stack levels used: 1
  3902 ;; Hardware stack levels required when called: 4
  3903 ;; This function calls:
  3904 ;;		Nothing
  3905 ;; This function is called by:
  3906 ;;		_store_seg_buffer
  3907 ;; This function uses a non-reentrant model
  3908 ;;
  3909                           
  3910     0349                     _store_eeprom_func:	
  3911                           ;psect for function _store_eeprom_func
  3912                           
  3913                           
  3914                           ;incstack = 0
  3915                           ; Regs used in _store_eeprom_func: [wreg+status,2]
  3916                           ;store_eeprom_func@data stored from wreg
  3917     0349  00F5               	movwf	store_eeprom_func@data
  3918     034A                     l1302:
  3919                           
  3920                           ;eeprom.c: 3: void store_eeprom_func(char data, short addr);eeprom.c: 4: {;eeprom.c: 6: 
      +                              NVMDATL = data;
  3921     034A  0875               	movf	store_eeprom_func@data,w
  3922     034B  0030               	movlb	16	; select bank16
  3923     034C  009C               	movwf	28	;volatile
  3924     034D                     l1304:
  3925                           
  3926                           ;eeprom.c: 8:     NVMCON1bits.NVMREGS = 0b1;
  3927     034D  171E               	bsf	30,6	;volsfr
  3928     034E                     l1306:
  3929                           
  3930                           ;eeprom.c: 9:     NVMCON1bits.WREN = 0b1;
  3931     034E  151E               	bsf	30,2	;volsfr
  3932     034F                     l1308:
  3933                           
  3934                           ;eeprom.c: 12:     NVMADRH = (char)(addr>>8);
  3935     034F  0874               	movf	store_eeprom_func@addr+1,w
  3936     0350  009B               	movwf	27	;volatile
  3937     0351                     l1310:
  3938                           
  3939                           ;eeprom.c: 13:     NVMADRL = (char)addr;
  3940     0351  0873               	movf	store_eeprom_func@addr,w
  3941     0352  009A               	movwf	26	;volatile
  3942     0353                     l1312:
  3943                           
  3944                           ;eeprom.c: 15:     INTCONbits.GIE = 0b0;
  3945     0353  138B               	bcf	11,7	;volatile
  3946     0354                     l1314:
  3947                           
  3948                           ;eeprom.c: 16:     NVMCON1bits.WREN = 0b1;
  3949     0354  151E               	bsf	30,2	;volsfr
  3950     0355                     l1316:
  3951                           
  3952                           ;eeprom.c: 18:     NVMCON2 = 0x55;
  3953     0355  3055               	movlw	85
  3954     0356  009F               	movwf	31	;volsfr
  3955     0357                     l1318:
  3956                           
  3957                           ;eeprom.c: 19:     NVMCON2 = 0xaa;
  3958     0357  30AA               	movlw	170
  3959     0358  009F               	movwf	31	;volsfr
  3960     0359                     l1320:
  3961                           
  3962                           ;eeprom.c: 20:     NVMCON1bits.WR = 0b1;
  3963     0359  149E               	bsf	30,1	;volsfr
  3964     035A                     l1322:
  3965                           
  3966                           ;eeprom.c: 21:     INTCONbits.GIE = 0b1;
  3967     035A  178B               	bsf	11,7	;volatile
  3968     035B                     l266:	
  3969                           ;eeprom.c: 23:     while (NVMCON1bits.WR);
  3970                           
  3971     035B  189E               	btfsc	30,1	;volsfr
  3972     035C  2B5E               	goto	u481
  3973     035D  2B5F               	goto	u480
  3974     035E                     u481:
  3975     035E  2B5B               	goto	l266
  3976     035F                     u480:
  3977     035F                     l269:
  3978     035F  0008               	return
  3979     0360                     __end_of_store_eeprom_func:
  3980                           
  3981                           	psect	text3
  3982     0122                     __ptext3:	
  3983 ;; *************** function _seg_startup_anime *****************
  3984 ;; Defined at:
  3985 ;;		line 26 in file "seg_display.c"
  3986 ;; Parameters:    Size  Location     Type
  3987 ;;  times           2    2[BANK0 ] int 
  3988 ;; Auto vars:     Size  Location     Type
  3989 ;;  i               2    8[BANK0 ] int 
  3990 ;; Return value:  Size  Location     Type
  3991 ;;                  1    wreg      void 
  3992 ;; Registers used:
  3993 ;;		wreg, fsr0l, fsr0h, fsr1l, fsr1h, status,2, status,0, pclath, cstack
  3994 ;; Tracked objects:
  3995 ;;		On entry : 0/0
  3996 ;;		On exit  : 0/0
  3997 ;;		Unchanged: 0/0
  3998 ;; Data sizes:     COMMON   BANK0   BANK1   BANK2   BANK3   BANK4   BANK5   BANK6
  3999 ;;      Params:         0       2       0       0       0       0       0       0
  4000 ;;      Locals:         0       2       0       0       0       0       0       0
  4001 ;;      Temps:          0       4       0       0       0       0       0       0
  4002 ;;      Totals:         0       8       0       0       0       0       0       0
  4003 ;;Total ram usage:        8 bytes
  4004 ;; Hardware stack levels used: 1
  4005 ;; Hardware stack levels required when called: 5
  4006 ;; This function calls:
  4007 ;;		___awmod
  4008 ;;		___wmul
  4009 ;; This function is called by:
  4010 ;;		_main
  4011 ;; This function uses a non-reentrant model
  4012 ;;
  4013                           
  4014     0122                     _seg_startup_anime:	
  4015                           ;psect for function _seg_startup_anime
  4016                           
  4017     0122                     l1648:	
  4018                           ;incstack = 0
  4019                           ; Regs used in _seg_startup_anime: [wreg-fsr1h+status,2+status,0+pclath+cstack]
  4020                           
  4021                           
  4022                           ;seg_display.c: 26: void seg_startup_anime(int times);seg_display.c: 27: {;seg_display.c
      +                          : 28:     times = times*11;
  4023     0122  0020               	movlb	0	; select bank0
  4024     0123  0823               	movf	seg_startup_anime@times+1,w
  4025     0124  00F4               	movwf	___wmul@multiplier+1
  4026     0125  0822               	movf	seg_startup_anime@times,w
  4027     0126  00F3               	movwf	___wmul@multiplier
  4028     0127  300B               	movlw	11
  4029     0128  00F5               	movwf	___wmul@multiplicand
  4030     0129  3000               	movlw	0
  4031     012A  00F6               	movwf	___wmul@multiplicand+1
  4032     012B  3183  2327  3181   	fcall	___wmul
  4033     012E  0874               	movf	?___wmul+1,w
  4034     012F  0020               	movlb	0	; select bank0
  4035     0130  00A3               	movwf	seg_startup_anime@times+1
  4036     0131  0873               	movf	?___wmul,w
  4037     0132  00A2               	movwf	seg_startup_anime@times
  4038     0133                     l1650:
  4039                           
  4040                           ;seg_display.c: 29:     for (int i = 0; i < times; ++i)
  4041     0133  01A8               	clrf	seg_startup_anime@i
  4042     0134  01A9               	clrf	seg_startup_anime@i+1
  4043     0135  2972               	goto	l1658
  4044     0136                     l1652:
  4045                           
  4046                           ;seg_display.c: 30:     {;seg_display.c: 31:         *(long*)seg_buffer = startup_anime_
      +                          code[i%11];
  4047     0136  300B               	movlw	11
  4048     0137  00F3               	movwf	___awmod@divisor
  4049     0138  3000               	movlw	0
  4050     0139  00F4               	movwf	___awmod@divisor+1
  4051     013A  0020               	movlb	0	; select bank0
  4052     013B  0829               	movf	seg_startup_anime@i+1,w
  4053     013C  00F6               	movwf	___awmod@dividend+1
  4054     013D  0828               	movf	seg_startup_anime@i,w
  4055     013E  00F5               	movwf	___awmod@dividend
  4056     013F  3181  21E0  3181   	fcall	___awmod
  4057     0142  0874               	movf	?___awmod+1,w
  4058     0143  0085               	movwf	5
  4059     0144  0873               	movf	?___awmod,w
  4060     0145  0084               	movwf	4
  4061     0146  3584               	lslf	4,f
  4062     0147  0D85               	rlf	5,f
  4063     0148  3584               	lslf	4,f
  4064     0149  0D85               	rlf	5,f
  4065     014A  3063               	movlw	low _startup_anime_code
  4066     014B  0784               	addwf	4,f
  4067     014C  3002               	movlw	high _startup_anime_code
  4068     014D  3D05               	addwfc	5,w
  4069     014E  3880               	iorlw	128
  4070     014F  0085               	movwf	5
  4071     0150  3F00               	moviw [0]fsr0
  4072     0151  0020               	movlb	0	; select bank0
  4073     0152  00A4               	movwf	??_seg_startup_anime
  4074     0153  3F01               	moviw [1]fsr0
  4075     0154  00A5               	movwf	??_seg_startup_anime+1
  4076     0155  3F02               	moviw [2]fsr0
  4077     0156  00A6               	movwf	??_seg_startup_anime+2
  4078     0157  3F03               	moviw [3]fsr0
  4079     0158  00A7               	movwf	??_seg_startup_anime+3
  4080     0159  302D               	movlw	low (_seg_buffer| 0)
  4081     015A  0086               	movwf	6
  4082     015B  0187               	clrf	7
  4083     015C  0824               	movf	??_seg_startup_anime,w
  4084     015D  3FC0               	movwi [0]fsr1
  4085     015E  0825               	movf	??_seg_startup_anime+1,w
  4086     015F  3FC1               	movwi [1]fsr1
  4087     0160  0826               	movf	??_seg_startup_anime+2,w
  4088     0161  3FC2               	movwi [2]fsr1
  4089     0162  0827               	movf	??_seg_startup_anime+3,w
  4090     0163  3FC3               	movwi [3]fsr1
  4091     0164                     l1654:
  4092                           
  4093                           ;seg_display.c: 32:         _delay(6000);
  4094     0164  3008               	movlw	8
  4095     0165  0020               	movlb	0	; select bank0
  4096     0166  00A4               	movwf	??_seg_startup_anime
  4097     0167  30C9               	movlw	201
  4098     0168                     u1017:
  4099     0168  0B89               	decfsz	9,f
  4100     0169  2968               	goto	u1017
  4101     016A  0BA4               	decfsz	??_seg_startup_anime,f
  4102     016B  2968               	goto	u1017
  4103     016C  3200               	nop2
  4104     016D                     l1656:
  4105                           
  4106                           ;seg_display.c: 33:     }
  4107     016D  3001               	movlw	1
  4108     016E  0020               	movlb	0	; select bank0
  4109     016F  07A8               	addwf	seg_startup_anime@i,f
  4110     0170  3000               	movlw	0
  4111     0171  3DA9               	addwfc	seg_startup_anime@i+1,f
  4112     0172                     l1658:
  4113     0172  0829               	movf	seg_startup_anime@i+1,w
  4114     0173  3A80               	xorlw	128
  4115     0174  00A4               	movwf	??_seg_startup_anime
  4116     0175  0823               	movf	seg_startup_anime@times+1,w
  4117     0176  3A80               	xorlw	128
  4118     0177  0224               	subwf	??_seg_startup_anime,w
  4119     0178  1D03               	skipz
  4120     0179  297C               	goto	u965
  4121     017A  0822               	movf	seg_startup_anime@times,w
  4122     017B  0228               	subwf	seg_startup_anime@i,w
  4123     017C                     u965:
  4124     017C  1C03               	skipc
  4125     017D  297F               	goto	u961
  4126     017E  2980               	goto	u960
  4127     017F                     u961:
  4128     017F  2936               	goto	l1652
  4129     0180                     u960:
  4130     0180                     l122:
  4131     0180  0008               	return
  4132     0181                     __end_of_seg_startup_anime:
  4133                           
  4134                           	psect	text4
  4135     0327                     __ptext4:	
  4136 ;; *************** function ___wmul *****************
  4137 ;; Defined at:
  4138 ;;		line 15 in file "/opt/microchip/xc8/v2.41/pic/sources/c99/common/Umul16.c"
  4139 ;; Parameters:    Size  Location     Type
  4140 ;;  multiplier      2    3[COMMON] unsigned int 
  4141 ;;  multiplicand    2    5[COMMON] unsigned int 
  4142 ;; Auto vars:     Size  Location     Type
  4143 ;;  product         2    0[BANK0 ] unsigned int 
  4144 ;; Return value:  Size  Location     Type
  4145 ;;                  2    3[COMMON] unsigned int 
  4146 ;; Registers used:
  4147 ;;		wreg, status,2, status,0
  4148 ;; Tracked objects:
  4149 ;;		On entry : 0/0
  4150 ;;		On exit  : 0/0
  4151 ;;		Unchanged: 0/0
  4152 ;; Data sizes:     COMMON   BANK0   BANK1   BANK2   BANK3   BANK4   BANK5   BANK6
  4153 ;;      Params:         4       0       0       0       0       0       0       0
  4154 ;;      Locals:         0       2       0       0       0       0       0       0
  4155 ;;      Temps:          0       0       0       0       0       0       0       0
  4156 ;;      Totals:         4       2       0       0       0       0       0       0
  4157 ;;Total ram usage:        6 bytes
  4158 ;; Hardware stack levels used: 1
  4159 ;; Hardware stack levels required when called: 4
  4160 ;; This function calls:
  4161 ;;		Nothing
  4162 ;; This function is called by:
  4163 ;;		_seg_startup_anime
  4164 ;; This function uses a non-reentrant model
  4165 ;;
  4166                           
  4167     0327                     ___wmul:	
  4168                           ;psect for function ___wmul
  4169                           
  4170     0327                     l1596:	
  4171                           ;incstack = 0
  4172                           ; Regs used in ___wmul: [wreg+status,2+status,0]
  4173                           
  4174     0327  0020               	movlb	0	; select bank0
  4175     0328  01A0               	clrf	___wmul@product
  4176     0329  01A1               	clrf	___wmul@product+1
  4177     032A                     l1598:
  4178     032A  1C73               	btfss	___wmul@multiplier,0
  4179     032B  2B2D               	goto	u831
  4180     032C  2B2E               	goto	u830
  4181     032D                     u831:
  4182     032D  2B33               	goto	l430
  4183     032E                     u830:
  4184     032E                     l1600:
  4185     032E  0875               	movf	___wmul@multiplicand,w
  4186     032F  0020               	movlb	0	; select bank0
  4187     0330  07A0               	addwf	___wmul@product,f
  4188     0331  0876               	movf	___wmul@multiplicand+1,w
  4189     0332  3DA1               	addwfc	___wmul@product+1,f
  4190     0333                     l430:
  4191     0333  3001               	movlw	1
  4192     0334                     u845:
  4193     0334  35F5               	lslf	___wmul@multiplicand,f
  4194     0335  0DF6               	rlf	___wmul@multiplicand+1,f
  4195     0336  0B89               	decfsz	9,f
  4196     0337  2B34               	goto	u845
  4197     0338                     l1602:
  4198     0338  3001               	movlw	1
  4199     0339                     u855:
  4200     0339  36F4               	lsrf	___wmul@multiplier+1,f
  4201     033A  0CF3               	rrf	___wmul@multiplier,f
  4202     033B  0B89               	decfsz	9,f
  4203     033C  2B39               	goto	u855
  4204     033D                     l1604:
  4205     033D  0873               	movf	___wmul@multiplier,w
  4206     033E  0474               	iorwf	___wmul@multiplier+1,w
  4207     033F  1D03               	btfss	3,2
  4208     0340  2B42               	goto	u861
  4209     0341  2B43               	goto	u860
  4210     0342                     u861:
  4211     0342  2B2A               	goto	l1598
  4212     0343                     u860:
  4213     0343                     l1606:
  4214     0343  0020               	movlb	0	; select bank0
  4215     0344  0821               	movf	___wmul@product+1,w
  4216     0345  00F4               	movwf	?___wmul+1
  4217     0346  0820               	movf	___wmul@product,w
  4218     0347  00F3               	movwf	?___wmul
  4219     0348                     l432:
  4220     0348  0008               	return
  4221     0349                     __end_of___wmul:
  4222                           
  4223                           	psect	text5
  4224     01E0                     __ptext5:	
  4225 ;; *************** function ___awmod *****************
  4226 ;; Defined at:
  4227 ;;		line 5 in file "/opt/microchip/xc8/v2.41/pic/sources/c99/common/awmod.c"
  4228 ;; Parameters:    Size  Location     Type
  4229 ;;  divisor         2    3[COMMON] int 
  4230 ;;  dividend        2    5[COMMON] int 
  4231 ;; Auto vars:     Size  Location     Type
  4232 ;;  sign            1    1[BANK0 ] unsigned char 
  4233 ;;  counter         1    0[BANK0 ] unsigned char 
  4234 ;; Return value:  Size  Location     Type
  4235 ;;                  2    3[COMMON] int 
  4236 ;; Registers used:
  4237 ;;		wreg, status,2, status,0
  4238 ;; Tracked objects:
  4239 ;;		On entry : 0/0
  4240 ;;		On exit  : 0/0
  4241 ;;		Unchanged: 0/0
  4242 ;; Data sizes:     COMMON   BANK0   BANK1   BANK2   BANK3   BANK4   BANK5   BANK6
  4243 ;;      Params:         4       0       0       0       0       0       0       0
  4244 ;;      Locals:         0       2       0       0       0       0       0       0
  4245 ;;      Temps:          1       0       0       0       0       0       0       0
  4246 ;;      Totals:         5       2       0       0       0       0       0       0
  4247 ;;Total ram usage:        7 bytes
  4248 ;; Hardware stack levels used: 1
  4249 ;; Hardware stack levels required when called: 4
  4250 ;; This function calls:
  4251 ;;		Nothing
  4252 ;; This function is called by:
  4253 ;;		_seg_startup_anime
  4254 ;; This function uses a non-reentrant model
  4255 ;;
  4256                           
  4257     01E0                     ___awmod:	
  4258                           ;psect for function ___awmod
  4259                           
  4260     01E0                     l1610:	
  4261                           ;incstack = 0
  4262                           ; Regs used in ___awmod: [wreg+status,2+status,0]
  4263                           
  4264     01E0  0020               	movlb	0	; select bank0
  4265     01E1  01A1               	clrf	___awmod@sign
  4266     01E2                     l1612:
  4267     01E2  1FF6               	btfss	___awmod@dividend+1,7
  4268     01E3  29E5               	goto	u871
  4269     01E4  29E6               	goto	u870
  4270     01E5                     u871:
  4271     01E5  29ED               	goto	l1618
  4272     01E6                     u870:
  4273     01E6                     l1614:
  4274     01E6  09F5               	comf	___awmod@dividend,f
  4275     01E7  09F6               	comf	___awmod@dividend+1,f
  4276     01E8  0AF5               	incf	___awmod@dividend,f
  4277     01E9  1903               	skipnz
  4278     01EA  0AF6               	incf	___awmod@dividend+1,f
  4279     01EB                     l1616:
  4280     01EB  01A1               	clrf	___awmod@sign
  4281     01EC  0AA1               	incf	___awmod@sign,f
  4282     01ED                     l1618:
  4283     01ED  1FF4               	btfss	___awmod@divisor+1,7
  4284     01EE  29F0               	goto	u881
  4285     01EF  29F1               	goto	u880
  4286     01F0                     u881:
  4287     01F0  29F6               	goto	l1622
  4288     01F1                     u880:
  4289     01F1                     l1620:
  4290     01F1  09F3               	comf	___awmod@divisor,f
  4291     01F2  09F4               	comf	___awmod@divisor+1,f
  4292     01F3  0AF3               	incf	___awmod@divisor,f
  4293     01F4  1903               	skipnz
  4294     01F5  0AF4               	incf	___awmod@divisor+1,f
  4295     01F6                     l1622:
  4296     01F6  0873               	movf	___awmod@divisor,w
  4297     01F7  0474               	iorwf	___awmod@divisor+1,w
  4298     01F8  1903               	btfsc	3,2
  4299     01F9  29FB               	goto	u891
  4300     01FA  29FC               	goto	u890
  4301     01FB                     u891:
  4302     01FB  2A25               	goto	l1640
  4303     01FC                     u890:
  4304     01FC                     l1624:
  4305     01FC  01A0               	clrf	___awmod@counter
  4306     01FD  0AA0               	incf	___awmod@counter,f
  4307     01FE  2A08               	goto	l1630
  4308     01FF                     l1626:
  4309     01FF  3001               	movlw	1
  4310     0200                     u905:
  4311     0200  35F3               	lslf	___awmod@divisor,f
  4312     0201  0DF4               	rlf	___awmod@divisor+1,f
  4313     0202  0B89               	decfsz	9,f
  4314     0203  2A00               	goto	u905
  4315     0204                     l1628:
  4316     0204  3001               	movlw	1
  4317     0205  00F7               	movwf	??___awmod
  4318     0206  0877               	movf	??___awmod,w
  4319     0207  07A0               	addwf	___awmod@counter,f
  4320     0208                     l1630:
  4321     0208  1FF4               	btfss	___awmod@divisor+1,7
  4322     0209  2A0B               	goto	u911
  4323     020A  2A0C               	goto	u910
  4324     020B                     u911:
  4325     020B  29FF               	goto	l1626
  4326     020C                     u910:
  4327     020C                     l1632:
  4328     020C  0874               	movf	___awmod@divisor+1,w
  4329     020D  0276               	subwf	___awmod@dividend+1,w
  4330     020E  1D03               	skipz
  4331     020F  2A12               	goto	u925
  4332     0210  0873               	movf	___awmod@divisor,w
  4333     0211  0275               	subwf	___awmod@dividend,w
  4334     0212                     u925:
  4335     0212  1C03               	skipc
  4336     0213  2A15               	goto	u921
  4337     0214  2A16               	goto	u920
  4338     0215                     u921:
  4339     0215  2A1A               	goto	l1636
  4340     0216                     u920:
  4341     0216                     l1634:
  4342     0216  0873               	movf	___awmod@divisor,w
  4343     0217  02F5               	subwf	___awmod@dividend,f
  4344     0218  0874               	movf	___awmod@divisor+1,w
  4345     0219  3BF6               	subwfb	___awmod@dividend+1,f
  4346     021A                     l1636:
  4347     021A  3001               	movlw	1
  4348     021B                     u935:
  4349     021B  36F4               	lsrf	___awmod@divisor+1,f
  4350     021C  0CF3               	rrf	___awmod@divisor,f
  4351     021D  0B89               	decfsz	9,f
  4352     021E  2A1B               	goto	u935
  4353     021F                     l1638:
  4354     021F  3001               	movlw	1
  4355     0220  02A0               	subwf	___awmod@counter,f
  4356     0221  1D03               	btfss	3,2
  4357     0222  2A24               	goto	u941
  4358     0223  2A25               	goto	u940
  4359     0224                     u941:
  4360     0224  2A0C               	goto	l1632
  4361     0225                     u940:
  4362     0225                     l1640:
  4363     0225  0821               	movf	___awmod@sign,w
  4364     0226  1903               	btfsc	3,2
  4365     0227  2A29               	goto	u951
  4366     0228  2A2A               	goto	u950
  4367     0229                     u951:
  4368     0229  2A2F               	goto	l1644
  4369     022A                     u950:
  4370     022A                     l1642:
  4371     022A  09F5               	comf	___awmod@dividend,f
  4372     022B  09F6               	comf	___awmod@dividend+1,f
  4373     022C  0AF5               	incf	___awmod@dividend,f
  4374     022D  1903               	skipnz
  4375     022E  0AF6               	incf	___awmod@dividend+1,f
  4376     022F                     l1644:
  4377     022F  0876               	movf	___awmod@dividend+1,w
  4378     0230  00F4               	movwf	?___awmod+1
  4379     0231  0875               	movf	___awmod@dividend,w
  4380     0232  00F3               	movwf	?___awmod
  4381     0233                     l596:
  4382     0233  0008               	return
  4383     0234                     __end_of___awmod:
  4384                           
  4385                           	psect	text6
  4386     00B1                     __ptext6:	
  4387 ;; *************** function _scan_touch_key_func *****************
  4388 ;; Defined at:
  4389 ;;		line 106 in file "scan_botton.c"
  4390 ;; Parameters:    Size  Location     Type
  4391 ;;		None
  4392 ;; Auto vars:     Size  Location     Type
  4393 ;;  i               2    0[BANK0 ] int 
  4394 ;;  port            1    6[BANK0 ] unsigned char 
  4395 ;;  adcres          2    4[BANK0 ] short 
  4396 ;;  key             2    2[BANK0 ] int 
  4397 ;; Return value:  Size  Location     Type
  4398 ;;                  2    3[COMMON] int 
  4399 ;; Registers used:
  4400 ;;		wreg, status,2, status,0
  4401 ;; Tracked objects:
  4402 ;;		On entry : 0/0
  4403 ;;		On exit  : 0/0
  4404 ;;		Unchanged: 0/0
  4405 ;; Data sizes:     COMMON   BANK0   BANK1   BANK2   BANK3   BANK4   BANK5   BANK6
  4406 ;;      Params:         2       0       0       0       0       0       0       0
  4407 ;;      Locals:         0       7       0       0       0       0       0       0
  4408 ;;      Temps:          2       0       0       0       0       0       0       0
  4409 ;;      Totals:         4       7       0       0       0       0       0       0
  4410 ;;Total ram usage:       11 bytes
  4411 ;; Hardware stack levels used: 1
  4412 ;; Hardware stack levels required when called: 4
  4413 ;; This function calls:
  4414 ;;		Nothing
  4415 ;; This function is called by:
  4416 ;;		_main
  4417 ;;		_scan_key_func
  4418 ;; This function uses a non-reentrant model
  4419 ;;
  4420                           
  4421     00B1                     _scan_touch_key_func:	
  4422                           ;psect for function _scan_touch_key_func
  4423                           
  4424     00B1                     l1460:	
  4425                           ;incstack = 0
  4426                           ; Regs used in _scan_touch_key_func: [wreg+status,2+status,0]
  4427                           
  4428     00B1                     l1462:
  4429                           
  4430                           ;scan_botton.c: 109:     int key = -1;
  4431     00B1  30FF               	movlw	255
  4432     00B2  0020               	movlb	0	; select bank0
  4433     00B3  00A2               	movwf	scan_touch_key_func@key
  4434     00B4  30FF               	movlw	255
  4435     00B5  00A3               	movwf	scan_touch_key_func@key+1
  4436     00B6                     l1464:
  4437                           
  4438                           ;scan_botton.c: 111:     TRISA = 0b01110000;
  4439     00B6  3070               	movlw	112
  4440     00B7  0091               	movwf	17	;volatile
  4441     00B8                     l1466:
  4442                           
  4443                           ;scan_botton.c: 112:     ANSELA = 0b01110000;
  4444     00B8  3070               	movlw	112
  4445     00B9  003E               	movlb	30	; select bank30
  4446     00BA  00B8               	movwf	56	;volatile
  4447     00BB                     l1468:
  4448                           
  4449                           ;scan_botton.c: 116:     for (unsigned char port = 4; port <= 6; ++port)
  4450     00BB  3004               	movlw	4
  4451     00BC  0020               	movlb	0	; select bank0
  4452     00BD  00A6               	movwf	scan_touch_key_func@port
  4453     00BE                     l1474:
  4454                           
  4455                           ;scan_botton.c: 117:     {;scan_botton.c: 118:         adcres = 0;
  4456     00BE  01A4               	clrf	scan_touch_key_func@adcres
  4457     00BF  01A5               	clrf	scan_touch_key_func@adcres+1
  4458     00C0                     l1476:
  4459                           
  4460                           ;scan_botton.c: 119:         ADPCHbits.ADPCH = port;
  4461     00C0  0021               	movlb	1	; select bank1
  4462     00C1  081E               	movf	30,w	;volatile
  4463     00C2  0020               	movlb	0	; select bank0
  4464     00C3  0626               	xorwf	scan_touch_key_func@port,w
  4465     00C4  39C0               	andlw	-64
  4466     00C5  0626               	xorwf	scan_touch_key_func@port,w
  4467     00C6  0021               	movlb	1	; select bank1
  4468     00C7  009E               	movwf	30	;volatile
  4469     00C8                     l1478:
  4470                           
  4471                           ;scan_botton.c: 120:         for (int i = 0; i < 8; ++i){
  4472     00C8  0020               	movlb	0	; select bank0
  4473     00C9  01A0               	clrf	scan_touch_key_func@i
  4474     00CA  01A1               	clrf	scan_touch_key_func@i+1
  4475     00CB                     l203:
  4476                           
  4477                           ;scan_botton.c: 121:             ADCON0bits.ADGO = 1;
  4478     00CB  0021               	movlb	1	; select bank1
  4479     00CC  1413               	bsf	19,0	;volatile
  4480     00CD                     l205:	
  4481                           ;scan_botton.c: 122:             while (ADCON0bits.ADGO);
  4482                           
  4483     00CD  1813               	btfsc	19,0	;volatile
  4484     00CE  28D0               	goto	u741
  4485     00CF  28D1               	goto	u740
  4486     00D0                     u741:
  4487     00D0  28CD               	goto	l205
  4488     00D1                     u740:
  4489     00D1                     l1484:
  4490                           
  4491                           ;scan_botton.c: 123:             adcres += ((ADRESH << 8) | ADRESL);
  4492     00D1  080C               	movf	12,w	;volatile
  4493     00D2  0020               	movlb	0	; select bank0
  4494     00D3  07A4               	addwf	scan_touch_key_func@adcres,f
  4495     00D4  0021               	movlb	1	; select bank1
  4496     00D5  080D               	movf	13,w	;volatile
  4497     00D6  0020               	movlb	0	; select bank0
  4498     00D7  3DA5               	addwfc	scan_touch_key_func@adcres+1,f
  4499                           
  4500                           ;scan_botton.c: 124:         }
  4501     00D8  3001               	movlw	1
  4502     00D9  07A0               	addwf	scan_touch_key_func@i,f
  4503     00DA  3000               	movlw	0
  4504     00DB  3DA1               	addwfc	scan_touch_key_func@i+1,f
  4505     00DC  0821               	movf	scan_touch_key_func@i+1,w
  4506     00DD  3A80               	xorlw	128
  4507     00DE  00F5               	movwf	??_scan_touch_key_func
  4508     00DF  3080               	movlw	128
  4509     00E0  0275               	subwf	??_scan_touch_key_func,w
  4510     00E1  1D03               	skipz
  4511     00E2  28E5               	goto	u755
  4512     00E3  3008               	movlw	8
  4513     00E4  0220               	subwf	scan_touch_key_func@i,w
  4514     00E5                     u755:
  4515     00E5  1C03               	skipc
  4516     00E6  28E8               	goto	u751
  4517     00E7  28E9               	goto	u750
  4518     00E8                     u751:
  4519     00E8  28CB               	goto	l203
  4520     00E9                     u750:
  4521     00E9                     l1486:
  4522                           
  4523                           ;scan_botton.c: 125:         adcres = adcres >> 3;
  4524     00E9  0020               	movlb	0	; select bank0
  4525     00EA  0825               	movf	scan_touch_key_func@adcres+1,w
  4526     00EB  00F6               	movwf	??_scan_touch_key_func+1
  4527     00EC  0824               	movf	scan_touch_key_func@adcres,w
  4528     00ED  00F5               	movwf	??_scan_touch_key_func
  4529     00EE  0D76               	rlf	??_scan_touch_key_func+1,w
  4530     00EF  0CF6               	rrf	??_scan_touch_key_func+1,f
  4531     00F0  0CF5               	rrf	??_scan_touch_key_func,f
  4532     00F1  0D76               	rlf	??_scan_touch_key_func+1,w
  4533     00F2  0CF6               	rrf	??_scan_touch_key_func+1,f
  4534     00F3  0CF5               	rrf	??_scan_touch_key_func,f
  4535     00F4  0D76               	rlf	??_scan_touch_key_func+1,w
  4536     00F5  0CF6               	rrf	??_scan_touch_key_func+1,f
  4537     00F6  0CF5               	rrf	??_scan_touch_key_func,f
  4538     00F7  0875               	movf	??_scan_touch_key_func,w
  4539     00F8  00A4               	movwf	scan_touch_key_func@adcres
  4540     00F9  0876               	movf	??_scan_touch_key_func+1,w
  4541     00FA  00A5               	movwf	scan_touch_key_func@adcres+1
  4542                           
  4543                           ;scan_botton.c: 126:         if (adcres > 750)
  4544     00FB  0825               	movf	scan_touch_key_func@adcres+1,w
  4545     00FC  3A80               	xorlw	128
  4546     00FD  00F5               	movwf	??_scan_touch_key_func
  4547     00FE  3082               	movlw	130
  4548     00FF  0275               	subwf	??_scan_touch_key_func,w
  4549     0100  1D03               	skipz
  4550     0101  2904               	goto	u765
  4551     0102  30EF               	movlw	239
  4552     0103  0224               	subwf	scan_touch_key_func@adcres,w
  4553     0104                     u765:
  4554     0104  1C03               	skipc
  4555     0105  2907               	goto	u761
  4556     0106  2908               	goto	u760
  4557     0107                     u761:
  4558     0107  290E               	goto	l1492
  4559     0108                     u760:
  4560     0108                     l1488:
  4561                           
  4562                           ;scan_botton.c: 127:         {;scan_botton.c: 128:             return key;
  4563     0108  0020               	movlb	0	; select bank0
  4564     0109  0823               	movf	scan_touch_key_func@key+1,w
  4565     010A  00F4               	movwf	?_scan_touch_key_func+1
  4566     010B  0822               	movf	scan_touch_key_func@key,w
  4567     010C  00F3               	movwf	?_scan_touch_key_func
  4568     010D  2921               	goto	l209
  4569     010E                     l1492:
  4570                           
  4571                           ;scan_botton.c: 130:         ++key;
  4572     010E  3001               	movlw	1
  4573     010F  0020               	movlb	0	; select bank0
  4574     0110  07A2               	addwf	scan_touch_key_func@key,f
  4575     0111  3000               	movlw	0
  4576     0112  3DA3               	addwfc	scan_touch_key_func@key+1,f
  4577     0113                     l1494:
  4578                           
  4579                           ;scan_botton.c: 131:     }
  4580     0113  3001               	movlw	1
  4581     0114  00F5               	movwf	??_scan_touch_key_func
  4582     0115  0875               	movf	??_scan_touch_key_func,w
  4583     0116  07A6               	addwf	scan_touch_key_func@port,f
  4584     0117                     l1496:
  4585     0117  3007               	movlw	7
  4586     0118  0226               	subwf	scan_touch_key_func@port,w
  4587     0119  1C03               	skipc
  4588     011A  291C               	goto	u771
  4589     011B  291D               	goto	u770
  4590     011C                     u771:
  4591     011C  28BE               	goto	l1474
  4592     011D                     u770:
  4593     011D                     l1498:
  4594                           
  4595                           ;scan_botton.c: 133:     return key;
  4596     011D  3002               	movlw	2
  4597     011E  00F3               	movwf	?_scan_touch_key_func
  4598     011F  3000               	movlw	0
  4599     0120  00F4               	movwf	?_scan_touch_key_func+1
  4600     0121                     l209:
  4601     0121  0008               	return
  4602     0122                     __end_of_scan_touch_key_func:
  4603                           
  4604                           	psect	text7
  4605     0302                     __ptext7:	
  4606 ;; *************** function _load_seg_buffer *****************
  4607 ;; Defined at:
  4608 ;;		line 49 in file "eeprom.c"
  4609 ;; Parameters:    Size  Location     Type
  4610 ;;		None
  4611 ;; Auto vars:     Size  Location     Type
  4612 ;;		None
  4613 ;; Return value:  Size  Location     Type
  4614 ;;                  1    wreg      void 
  4615 ;; Registers used:
  4616 ;;		wreg, status,2, pclath, cstack
  4617 ;; Tracked objects:
  4618 ;;		On entry : 0/0
  4619 ;;		On exit  : 0/0
  4620 ;;		Unchanged: 0/0
  4621 ;; Data sizes:     COMMON   BANK0   BANK1   BANK2   BANK3   BANK4   BANK5   BANK6
  4622 ;;      Params:         0       0       0       0       0       0       0       0
  4623 ;;      Locals:         0       0       0       0       0       0       0       0
  4624 ;;      Temps:          0       0       0       0       0       0       0       0
  4625 ;;      Totals:         0       0       0       0       0       0       0       0
  4626 ;;Total ram usage:        0 bytes
  4627 ;; Hardware stack levels used: 1
  4628 ;; Hardware stack levels required when called: 5
  4629 ;; This function calls:
  4630 ;;		_load_from_eeprom_func
  4631 ;; This function is called by:
  4632 ;;		_main
  4633 ;; This function uses a non-reentrant model
  4634 ;;
  4635                           
  4636     0302                     _load_seg_buffer:	
  4637                           ;psect for function _load_seg_buffer
  4638                           
  4639     0302                     l1502:	
  4640                           ;incstack = 0
  4641                           ; Regs used in _load_seg_buffer: [wreg+status,2+pclath+cstack]
  4642                           
  4643                           
  4644                           ;eeprom.c: 51:     seg_buffer[0] = load_from_eeprom_func((short)0xf000);
  4645     0302  3000               	movlw	0
  4646     0303  00F3               	movwf	load_from_eeprom_func@addr
  4647     0304  30F0               	movlw	240
  4648     0305  00F4               	movwf	load_from_eeprom_func@addr+1
  4649     0306  3183  2395  3183   	fcall	_load_from_eeprom_func
  4650     0309  0020               	movlb	0	; select bank0
  4651     030A  00AD               	movwf	_seg_buffer
  4652                           
  4653                           ;eeprom.c: 52:     seg_buffer[1] = load_from_eeprom_func((short)0xf001);
  4654     030B  3001               	movlw	1
  4655     030C  00F3               	movwf	load_from_eeprom_func@addr
  4656     030D  30F0               	movlw	240
  4657     030E  00F4               	movwf	load_from_eeprom_func@addr+1
  4658     030F  3183  2395  3183   	fcall	_load_from_eeprom_func
  4659     0312  0020               	movlb	0	; select bank0
  4660     0313  00AE               	movwf	_seg_buffer+1
  4661                           
  4662                           ;eeprom.c: 53:     seg_buffer[2] = load_from_eeprom_func((short)0xf002);
  4663     0314  3002               	movlw	2
  4664     0315  00F3               	movwf	load_from_eeprom_func@addr
  4665     0316  30F0               	movlw	240
  4666     0317  00F4               	movwf	load_from_eeprom_func@addr+1
  4667     0318  3183  2395  3183   	fcall	_load_from_eeprom_func
  4668     031B  0020               	movlb	0	; select bank0
  4669     031C  00AF               	movwf	_seg_buffer+2
  4670                           
  4671                           ;eeprom.c: 54:     seg_buffer[3] = load_from_eeprom_func((short)0xf003);
  4672     031D  3003               	movlw	3
  4673     031E  00F3               	movwf	load_from_eeprom_func@addr
  4674     031F  30F0               	movlw	240
  4675     0320  00F4               	movwf	load_from_eeprom_func@addr+1
  4676     0321  3183  2395  3183   	fcall	_load_from_eeprom_func
  4677     0324  0020               	movlb	0	; select bank0
  4678     0325  00B0               	movwf	_seg_buffer+3
  4679     0326                     l278:
  4680     0326  0008               	return
  4681     0327                     __end_of_load_seg_buffer:
  4682                           
  4683                           	psect	text8
  4684     0395                     __ptext8:	
  4685 ;; *************** function _load_from_eeprom_func *****************
  4686 ;; Defined at:
  4687 ;;		line 26 in file "eeprom.c"
  4688 ;; Parameters:    Size  Location     Type
  4689 ;;  addr            2    3[COMMON] short 
  4690 ;; Auto vars:     Size  Location     Type
  4691 ;;		None
  4692 ;; Return value:  Size  Location     Type
  4693 ;;                  1    wreg      unsigned char 
  4694 ;; Registers used:
  4695 ;;		wreg, status,2
  4696 ;; Tracked objects:
  4697 ;;		On entry : 0/0
  4698 ;;		On exit  : 0/0
  4699 ;;		Unchanged: 0/0
  4700 ;; Data sizes:     COMMON   BANK0   BANK1   BANK2   BANK3   BANK4   BANK5   BANK6
  4701 ;;      Params:         2       0       0       0       0       0       0       0
  4702 ;;      Locals:         0       0       0       0       0       0       0       0
  4703 ;;      Temps:          0       0       0       0       0       0       0       0
  4704 ;;      Totals:         2       0       0       0       0       0       0       0
  4705 ;;Total ram usage:        2 bytes
  4706 ;; Hardware stack levels used: 1
  4707 ;; Hardware stack levels required when called: 4
  4708 ;; This function calls:
  4709 ;;		Nothing
  4710 ;; This function is called by:
  4711 ;;		_load_seg_buffer
  4712 ;; This function uses a non-reentrant model
  4713 ;;
  4714                           
  4715     0395                     _load_from_eeprom_func:	
  4716                           ;psect for function _load_from_eeprom_func
  4717                           
  4718     0395                     l1324:	
  4719                           ;incstack = 0
  4720                           ; Regs used in _load_from_eeprom_func: [wreg+status,2]
  4721                           
  4722                           
  4723                           ;eeprom.c: 26: char load_from_eeprom_func(short addr);eeprom.c: 27: {;eeprom.c: 28:     
      +                          NVMCON1bits.NVMREGS = 0b1;
  4724     0395  0030               	movlb	16	; select bank16
  4725     0396  171E               	bsf	30,6	;volsfr
  4726     0397                     l1326:
  4727                           
  4728                           ;eeprom.c: 33:     NVMADRH = (char)(addr>>8);
  4729     0397  0874               	movf	load_from_eeprom_func@addr+1,w
  4730     0398  009B               	movwf	27	;volatile
  4731     0399                     l1328:
  4732                           
  4733                           ;eeprom.c: 34:     NVMADRL = (char)addr;
  4734     0399  0873               	movf	load_from_eeprom_func@addr,w
  4735     039A  009A               	movwf	26	;volatile
  4736     039B                     l1330:
  4737                           
  4738                           ;eeprom.c: 36:     NVMCON1bits.RD = 0b1;
  4739     039B  141E               	bsf	30,0	;volsfr
  4740     039C                     l1332:
  4741                           
  4742                           ;eeprom.c: 38:     return NVMDATL;
  4743     039C  081C               	movf	28,w	;volatile
  4744     039D                     l272:
  4745     039D  0008               	return
  4746     039E                     __end_of_load_from_eeprom_func:
  4747                           
  4748                           	psect	intentry
  4749     0004                     __pintentry:	
  4750 ;; *************** function _irs_routine *****************
  4751 ;; Defined at:
  4752 ;;		line 9 in file "main.c"
  4753 ;; Parameters:    Size  Location     Type
  4754 ;;		None
  4755 ;; Auto vars:     Size  Location     Type
  4756 ;;		None
  4757 ;; Return value:  Size  Location     Type
  4758 ;;                  1    wreg      void 
  4759 ;; Registers used:
  4760 ;;		wreg, fsr0l, fsr0h, fsr1l, fsr1h, status,2, status,0, pclath, cstack
  4761 ;; Tracked objects:
  4762 ;;		On entry : 0/0
  4763 ;;		On exit  : 0/0
  4764 ;;		Unchanged: 0/0
  4765 ;; Data sizes:     COMMON   BANK0   BANK1   BANK2   BANK3   BANK4   BANK5   BANK6
  4766 ;;      Params:         0       0       0       0       0       0       0       0
  4767 ;;      Locals:         0       0       0       0       0       0       0       0
  4768 ;;      Temps:          0       0       0       0       0       0       0       0
  4769 ;;      Totals:         0       0       0       0       0       0       0       0
  4770 ;;Total ram usage:        0 bytes
  4771 ;; Hardware stack levels used: 1
  4772 ;; Hardware stack levels required when called: 3
  4773 ;; This function calls:
  4774 ;;		_scan_func
  4775 ;;		_seg_display_func
  4776 ;; This function is called by:
  4777 ;;		Interrupt level 1
  4778 ;; This function uses a non-reentrant model
  4779 ;;
  4780                           
  4781     0004                     _irs_routine:
  4782                           
  4783                           ;incstack = 0
  4784     0004  147E               	bsf	int$flags,0	;set compiler interrupt flag (level 1)
  4785                           
  4786                           ; Regs used in _irs_routine: [wreg-fsr1h+status,2+status,0+pclath+cstack]
  4787     0005  3180               	pagesel	$
  4788     0006                     i1l1506:
  4789                           
  4790                           ;main.c: 11:    if (PIR0bits.TMR0IF){
  4791     0006  002E               	movlb	14	; select bank14
  4792     0007  1E8C               	btfss	12,5	;volatile
  4793     0008  280A               	goto	u78_21
  4794     0009  280B               	goto	u78_20
  4795     000A                     u78_21:
  4796     000A  2818               	goto	i1l78
  4797     000B                     u78_20:
  4798     000B                     i1l1508:
  4799                           
  4800                           ;main.c: 12:        seg_display_func();
  4801     000B  3182  2234  3180   	fcall	_seg_display_func
  4802     000E                     i1l1510:
  4803                           
  4804                           ;main.c: 13:        scan_func();
  4805     000E  3181  2181  3180   	fcall	_scan_func
  4806     0011                     i1l1512:
  4807                           
  4808                           ;main.c: 14:        PIR0bits.TMR0IF = 0;
  4809     0011  002E               	movlb	14	; select bank14
  4810     0012  128C               	bcf	12,5	;volatile
  4811     0013                     i1l1514:
  4812                           
  4813                           ;main.c: 16:        TMR0H = 0xfe;
  4814     0013  30FE               	movlw	254
  4815     0014  0020               	movlb	0	; select bank0
  4816     0015  009D               	movwf	29	;volatile
  4817     0016                     i1l1516:
  4818                           
  4819                           ;main.c: 17:        TMR0L = 0xaf;
  4820     0016  30AF               	movlw	175
  4821     0017  009C               	movwf	28	;volatile
  4822     0018                     i1l78:
  4823     0018  107E               	bcf	int$flags,0	;clear compiler interrupt flag (level 1)
  4824     0019  0009               	retfie
  4825     001A                     __end_of_irs_routine:
  4826                           
  4827                           	psect	text10
  4828     0234                     __ptext10:	
  4829 ;; *************** function _seg_display_func *****************
  4830 ;; Defined at:
  4831 ;;		line 4 in file "seg_display.c"
  4832 ;; Parameters:    Size  Location     Type
  4833 ;;		None
  4834 ;; Auto vars:     Size  Location     Type
  4835 ;;		None
  4836 ;; Return value:  Size  Location     Type
  4837 ;;                  1    wreg      void 
  4838 ;; Registers used:
  4839 ;;		wreg, fsr0l, fsr0h, fsr1l, fsr1h, status,2, status,0, pclath
  4840 ;; Tracked objects:
  4841 ;;		On entry : 0/0
  4842 ;;		On exit  : 0/0
  4843 ;;		Unchanged: 0/0
  4844 ;; Data sizes:     COMMON   BANK0   BANK1   BANK2   BANK3   BANK4   BANK5   BANK6
  4845 ;;      Params:         0       0       0       0       0       0       0       0
  4846 ;;      Locals:         0       0       0       0       0       0       0       0
  4847 ;;      Temps:          0       0       0       0       0       0       0       0
  4848 ;;      Totals:         0       0       0       0       0       0       0       0
  4849 ;;Total ram usage:        0 bytes
  4850 ;; Hardware stack levels used: 1
  4851 ;; This function calls:
  4852 ;;		Nothing
  4853 ;; This function is called by:
  4854 ;;		_irs_routine
  4855 ;; This function uses a non-reentrant model
  4856 ;;
  4857                           
  4858     0234                     _seg_display_func:	
  4859                           ;psect for function _seg_display_func
  4860                           
  4861     0234                     i1l1388:	
  4862                           ;incstack = 0
  4863                           ; Regs used in _seg_display_func: [wreg-fsr1h+status,2+status,0+pclath]
  4864                           
  4865                           
  4866                           ;seg_display.c: 6:     --seg_idx;
  4867     0234  3001               	movlw	1
  4868     0235  02F8               	subwf	_seg_idx,f
  4869     0236                     i1l1390:
  4870                           
  4871                           ;seg_display.c: 10:     LATB = 0xff;
  4872     0236  30FF               	movlw	255
  4873     0237  0020               	movlb	0	; select bank0
  4874     0238  0097               	movwf	23	;volatile
  4875     0239                     i1l1392:
  4876                           
  4877                           ;seg_display.c: 13:     LATC = seg_buffer[seg_idx%4];
  4878     0239  0878               	movf	_seg_idx,w
  4879     023A  3903               	andlw	3
  4880     023B  3E2D               	addlw	(low (_seg_buffer| 0))& (0+255)
  4881     023C  0086               	movwf	6
  4882     023D  0187               	clrf	7
  4883     023E  0801               	movf	1,w
  4884     023F  0098               	movwf	24	;volatile
  4885     0240                     i1l1394:
  4886                           
  4887                           ;seg_display.c: 16:     if (seg_idx <= 127){
  4888     0240  3080               	movlw	128
  4889     0241  0278               	subwf	_seg_idx,w
  4890     0242  1803               	skipnc
  4891     0243  2A45               	goto	u62_21
  4892     0244  2A46               	goto	u62_20
  4893     0245                     u62_21:
  4894     0245  2A51               	goto	i1l1398
  4895     0246                     u62_20:
  4896     0246                     i1l1396:
  4897                           
  4898                           ;seg_display.c: 17:         LATB = _table_seg_select[seg_idx%4];
  4899     0246  0878               	movf	_seg_idx,w
  4900     0247  3903               	andlw	3
  4901     0248  3E9E               	addlw	low (__table_seg_select| (0+32768))
  4902     0249  0084               	movwf	4
  4903     024A  3083               	movlw	high (__table_seg_select| (0+32768))
  4904     024B  1803               	skipnc
  4905     024C  3E01               	addlw	1
  4906     024D  0085               	movwf	5
  4907     024E  0800               	movf	0,w	;code access
  4908     024F  0097               	movwf	23	;volatile
  4909                           
  4910                           ;seg_display.c: 18:     }
  4911     0250  2A62               	goto	i1l116
  4912     0251                     i1l1398:
  4913     0251  3080               	movlw	128
  4914     0252  0278               	subwf	_seg_idx,w
  4915     0253  1C03               	skipc
  4916     0254  2A56               	goto	u63_21
  4917     0255  2A57               	goto	u63_20
  4918     0256                     u63_21:
  4919     0256  2A62               	goto	i1l116
  4920     0257                     u63_20:
  4921     0257                     i1l1400:
  4922                           
  4923                           ;seg_display.c: 21:     {;seg_display.c: 22:         LATB = _table_seg_select[seg_idx%4]
      +                           | seg_flash;
  4924     0257  0878               	movf	_seg_idx,w
  4925     0258  3903               	andlw	3
  4926     0259  3E9E               	addlw	low (__table_seg_select| (0+32768))
  4927     025A  0084               	movwf	4
  4928     025B  3083               	movlw	high (__table_seg_select| (0+32768))
  4929     025C  1803               	skipnc
  4930     025D  3E01               	addlw	1
  4931     025E  0085               	movwf	5
  4932     025F  0800               	movf	0,w	;code access
  4933     0260  0432               	iorwf	_seg_flash,w
  4934     0261  0097               	movwf	23	;volatile
  4935     0262                     i1l116:
  4936     0262  0008               	return
  4937     0263                     __end_of_seg_display_func:
  4938                           
  4939                           	psect	text11
  4940     0181                     __ptext11:	
  4941 ;; *************** function _scan_func *****************
  4942 ;; Defined at:
  4943 ;;		line 4 in file "scan_botton.c"
  4944 ;; Parameters:    Size  Location     Type
  4945 ;;		None
  4946 ;; Auto vars:     Size  Location     Type
  4947 ;;		None
  4948 ;; Return value:  Size  Location     Type
  4949 ;;                  1    wreg      void 
  4950 ;; Registers used:
  4951 ;;		wreg, fsr0l, fsr0h, status,2, status,0, pclath, cstack
  4952 ;; Tracked objects:
  4953 ;;		On entry : 0/0
  4954 ;;		On exit  : 0/0
  4955 ;;		Unchanged: 0/0
  4956 ;; Data sizes:     COMMON   BANK0   BANK1   BANK2   BANK3   BANK4   BANK5   BANK6
  4957 ;;      Params:         0       0       0       0       0       0       0       0
  4958 ;;      Locals:         0       0       0       0       0       0       0       0
  4959 ;;      Temps:          1       0       0       0       0       0       0       0
  4960 ;;      Totals:         1       0       0       0       0       0       0       0
  4961 ;;Total ram usage:        1 bytes
  4962 ;; Hardware stack levels used: 1
  4963 ;; Hardware stack levels required when called: 2
  4964 ;; This function calls:
  4965 ;;		_double_click_func
  4966 ;;		_long_click_func
  4967 ;;		_polling_func
  4968 ;;		_single_click_func
  4969 ;; This function is called by:
  4970 ;;		_irs_routine
  4971 ;; This function uses a non-reentrant model
  4972 ;;
  4973                           
  4974     0181                     _scan_func:	
  4975                           ;psect for function _scan_func
  4976                           
  4977     0181                     i1l1402:	
  4978                           ;incstack = 0
  4979                           ; Regs used in _scan_func: [wreg-fsr0h+status,2+status,0+pclath+cstack]
  4980                           
  4981                           
  4982                           ;scan_botton.c: 6:     polling_func();
  4983     0181  3182  22B7  3181   	fcall	_polling_func
  4984     0184                     i1l1404:
  4985                           
  4986                           ;scan_botton.c: 7:     if (curr_key == 0)
  4987     0184  087A               	movf	_curr_key,w
  4988     0185  1D03               	btfss	3,2
  4989     0186  2988               	goto	u64_21
  4990     0187  2989               	goto	u64_20
  4991     0188                     u64_21:
  4992     0188  29A6               	goto	i1l1420
  4993     0189                     u64_20:
  4994     0189                     i1l1406:
  4995                           
  4996                           ;scan_botton.c: 8:     {;scan_botton.c: 9:         if (rcnt == 128)
  4997     0189  3080               	movlw	128
  4998     018A  0020               	movlb	0	; select bank0
  4999     018B  0635               	xorwf	_rcnt,w
  5000     018C  1D03               	btfss	3,2
  5001     018D  298F               	goto	u65_21
  5002     018E  2990               	goto	u65_20
  5003     018F                     u65_21:
  5004     018F  2993               	goto	i1l1410
  5005     0190                     u65_20:
  5006     0190                     i1l1408:
  5007                           
  5008                           ;scan_botton.c: 10:         {;scan_botton.c: 11:             single_click_func();
  5009     0190  3183  2372  3181   	fcall	_single_click_func
  5010     0193                     i1l1410:
  5011                           
  5012                           ;scan_botton.c: 13:         if (rcnt > 3)
  5013     0193  3004               	movlw	4
  5014     0194  0020               	movlb	0	; select bank0
  5015     0195  0235               	subwf	_rcnt,w
  5016     0196  1C03               	skipc
  5017     0197  2999               	goto	u66_21
  5018     0198  299A               	goto	u66_20
  5019     0199                     u66_21:
  5020     0199  299B               	goto	i1l1414
  5021     019A                     u66_20:
  5022     019A                     i1l1412:
  5023                           
  5024                           ;scan_botton.c: 14:         {;scan_botton.c: 15:             pcnt = 0;
  5025     019A  01B4               	clrf	_pcnt
  5026     019B                     i1l1414:
  5027                           
  5028                           ;scan_botton.c: 17:         if (rcnt == 255)
  5029     019B  0A35               	incf	_rcnt,w
  5030     019C  1D03               	btfss	3,2
  5031     019D  299F               	goto	u67_21
  5032     019E  29A0               	goto	u67_20
  5033     019F                     u67_21:
  5034     019F  29A1               	goto	i1l1418
  5035     01A0                     u67_20:
  5036     01A0  29DF               	goto	i1l173
  5037     01A1                     i1l1418:
  5038                           
  5039                           ;scan_botton.c: 21:         ++rcnt;
  5040     01A1  3001               	movlw	1
  5041     01A2  00F2               	movwf	??_scan_func
  5042     01A3  0872               	movf	??_scan_func,w
  5043     01A4  07B5               	addwf	_rcnt,f
  5044                           
  5045                           ;scan_botton.c: 22:     }else
  5046     01A5  29DF               	goto	i1l173
  5047     01A6                     i1l1420:
  5048                           
  5049                           ;scan_botton.c: 23:     {;scan_botton.c: 24:         if (pcnt == 200)
  5050     01A6  30C8               	movlw	200
  5051     01A7  0020               	movlb	0	; select bank0
  5052     01A8  0634               	xorwf	_pcnt,w
  5053     01A9  1D03               	btfss	3,2
  5054     01AA  29AC               	goto	u68_21
  5055     01AB  29AD               	goto	u68_20
  5056     01AC                     u68_21:
  5057     01AC  29B3               	goto	i1l1426
  5058     01AD                     u68_20:
  5059     01AD                     i1l1422:
  5060                           
  5061                           ;scan_botton.c: 25:         {;scan_botton.c: 26:             long_click_func();
  5062     01AD  3183  2360  3181   	fcall	_long_click_func
  5063     01B0                     i1l1424:
  5064                           
  5065                           ;scan_botton.c: 27:             rcnt = 128 +1;
  5066     01B0  3081               	movlw	129
  5067     01B1  0020               	movlb	0	; select bank0
  5068     01B2  00B5               	movwf	_rcnt
  5069     01B3                     i1l1426:
  5070                           
  5071                           ;scan_botton.c: 29:         if (pcnt == 2)
  5072     01B3  3002               	movlw	2
  5073     01B4  0634               	xorwf	_pcnt,w
  5074     01B5  1D03               	btfss	3,2
  5075     01B6  29B8               	goto	u69_21
  5076     01B7  29B9               	goto	u69_20
  5077     01B8                     u69_21:
  5078     01B8  29D5               	goto	i1l1442
  5079     01B9                     u69_20:
  5080     01B9                     i1l1428:
  5081                           
  5082                           ;scan_botton.c: 30:         {;scan_botton.c: 31:             key_buffer = (unsigned char
      +                          )(key_buffer << 4);
  5083     01B9  0879               	movf	_key_buffer,w
  5084     01BA  00F2               	movwf	??_scan_func
  5085     01BB  3003               	movlw	3
  5086     01BC                     u70_25:
  5087     01BC  35F2               	lslf	??_scan_func,f
  5088     01BD  3EFF               	addlw	-1
  5089     01BE  1D03               	skipz
  5090     01BF  29BC               	goto	u70_25
  5091     01C0  3572               	lslf	??_scan_func,w
  5092     01C1  00F9               	movwf	_key_buffer
  5093                           
  5094                           ;scan_botton.c: 32:             key_buffer = key_buffer ^ curr_key;
  5095     01C2  0879               	movf	_key_buffer,w
  5096     01C3  067A               	xorwf	_curr_key,w
  5097     01C4  00F9               	movwf	_key_buffer
  5098     01C5                     i1l1430:
  5099                           
  5100                           ;scan_botton.c: 33:             if (rcnt < 128)
  5101     01C5  3080               	movlw	128
  5102     01C6  0235               	subwf	_rcnt,w
  5103     01C7  1803               	skipnc
  5104     01C8  29CA               	goto	u71_21
  5105     01C9  29CB               	goto	u71_20
  5106     01CA                     u71_21:
  5107     01CA  29D4               	goto	i1l1440
  5108     01CB                     u71_20:
  5109     01CB                     i1l1432:
  5110                           
  5111                           ;scan_botton.c: 34:             {;scan_botton.c: 35:                 double_click_func()
      +                          ;
  5112     01CB  3182  228F  3181   	fcall	_double_click_func
  5113     01CE                     i1l1434:
  5114                           
  5115                           ;scan_botton.c: 36:                 rcnt = 128 +1;
  5116     01CE  3081               	movlw	129
  5117     01CF  0020               	movlb	0	; select bank0
  5118     01D0  00B5               	movwf	_rcnt
  5119     01D1                     i1l1436:
  5120                           
  5121                           ;scan_botton.c: 37:                 pcnt = 200 +1;
  5122     01D1  30C9               	movlw	201
  5123     01D2  00B4               	movwf	_pcnt
  5124     01D3  29DF               	goto	i1l173
  5125     01D4                     i1l1440:
  5126                           
  5127                           ;scan_botton.c: 40:             rcnt = 0;
  5128     01D4  01B5               	clrf	_rcnt
  5129     01D5                     i1l1442:
  5130                           
  5131                           ;scan_botton.c: 42:         if (pcnt == 255)
  5132     01D5  0A34               	incf	_pcnt,w
  5133     01D6  1D03               	btfss	3,2
  5134     01D7  29D9               	goto	u72_21
  5135     01D8  29DA               	goto	u72_20
  5136     01D9                     u72_21:
  5137     01D9  29DB               	goto	i1l1446
  5138     01DA                     u72_20:
  5139     01DA  29DF               	goto	i1l173
  5140     01DB                     i1l1446:
  5141                           
  5142                           ;scan_botton.c: 46:         ++pcnt;
  5143     01DB  3001               	movlw	1
  5144     01DC  00F2               	movwf	??_scan_func
  5145     01DD  0872               	movf	??_scan_func,w
  5146     01DE  07B4               	addwf	_pcnt,f
  5147     01DF                     i1l173:
  5148     01DF  0008               	return
  5149     01E0                     __end_of_scan_func:
  5150                           
  5151                           	psect	text12
  5152     02B7                     __ptext12:	
  5153 ;; *************** function _polling_func *****************
  5154 ;; Defined at:
  5155 ;;		line 50 in file "scan_botton.c"
  5156 ;; Parameters:    Size  Location     Type
  5157 ;;		None
  5158 ;; Auto vars:     Size  Location     Type
  5159 ;;  mask            1    1[COMMON] unsigned char 
  5160 ;;  w_tmp           1    0[COMMON] unsigned char 
  5161 ;; Return value:  Size  Location     Type
  5162 ;;                  1    wreg      void 
  5163 ;; Registers used:
  5164 ;;		wreg, status,2, status,0
  5165 ;; Tracked objects:
  5166 ;;		On entry : 0/0
  5167 ;;		On exit  : 0/0
  5168 ;;		Unchanged: 0/0
  5169 ;; Data sizes:     COMMON   BANK0   BANK1   BANK2   BANK3   BANK4   BANK5   BANK6
  5170 ;;      Params:         0       0       0       0       0       0       0       0
  5171 ;;      Locals:         2       0       0       0       0       0       0       0
  5172 ;;      Temps:          0       0       0       0       0       0       0       0
  5173 ;;      Totals:         2       0       0       0       0       0       0       0
  5174 ;;Total ram usage:        2 bytes
  5175 ;; Hardware stack levels used: 1
  5176 ;; This function calls:
  5177 ;;		Nothing
  5178 ;; This function is called by:
  5179 ;;		_scan_func
  5180 ;;		_scan_key_func
  5181 ;; This function uses a non-reentrant model
  5182 ;;
  5183                           
  5184     02B7                     _polling_func:	
  5185                           ;psect for function _polling_func
  5186                           
  5187     02B7                     i1l1270:	
  5188                           ;incstack = 0
  5189                           ; Regs used in _polling_func: [wreg+status,2+status,0]
  5190                           
  5191                           
  5192                           ;scan_botton.c: 52:     unsigned char w_tmp;;scan_botton.c: 53:     unsigned char mask =
      +                           0x08;
  5193     02B7  3008               	movlw	8
  5194     02B8  00F1               	movwf	polling_func@mask
  5195                           
  5196                           ;scan_botton.c: 55:     curr_key = 10;
  5197     02B9  300A               	movlw	10
  5198     02BA  00FA               	movwf	_curr_key
  5199                           
  5200                           ;scan_botton.c: 56:     TRISA = 0x0f;
  5201     02BB  300F               	movlw	15
  5202     02BC  0020               	movlb	0	; select bank0
  5203     02BD  0091               	movwf	17	;volatile
  5204     02BE                     i1l1272:
  5205                           
  5206                           ;scan_botton.c: 57:     PORTA = 0x00;
  5207     02BE  018C               	clrf	12	;volatile
  5208                           
  5209                           ;scan_botton.c: 59:     while (mask)
  5210     02BF  2AD7               	goto	i1l181
  5211     02C0                     i1l1274:
  5212                           
  5213                           ;scan_botton.c: 60:     {;scan_botton.c: 61:         w_tmp = mask;
  5214     02C0  0871               	movf	polling_func@mask,w
  5215     02C1  00F0               	movwf	polling_func@w_tmp
  5216                           
  5217                           ;scan_botton.c: 62:         while (w_tmp)
  5218     02C2  2ACE               	goto	i1l183
  5219     02C3                     i1l1276:
  5220                           
  5221                           ;scan_botton.c: 63:         {;scan_botton.c: 64:             if ((w_tmp & PORTA) == 0)
  5222     02C3  0870               	movf	polling_func@w_tmp,w
  5223     02C4  050C               	andwf	12,w	;volatile
  5224     02C5  1D03               	btfss	3,2
  5225     02C6  2AC8               	goto	u43_21
  5226     02C7  2AC9               	goto	u43_20
  5227     02C8                     u43_21:
  5228     02C8  2ACA               	goto	i1l1280
  5229     02C9                     u43_20:
  5230     02C9  2ADC               	goto	i1l186
  5231     02CA                     i1l1280:
  5232                           
  5233                           ;scan_botton.c: 68:             --curr_key;
  5234     02CA  3001               	movlw	1
  5235     02CB  02FA               	subwf	_curr_key,f
  5236                           
  5237                           ;scan_botton.c: 69:             w_tmp = w_tmp >> 1;
  5238     02CC  3670               	lsrf	polling_func@w_tmp,w
  5239     02CD  00F0               	movwf	polling_func@w_tmp
  5240     02CE                     i1l183:	
  5241                           ;scan_botton.c: 70:         }
  5242                           
  5243                           
  5244                           ;scan_botton.c: 62:         while (w_tmp)
  5245     02CE  0870               	movf	polling_func@w_tmp,w
  5246     02CF  1D03               	btfss	3,2
  5247     02D0  2AD2               	goto	u44_21
  5248     02D1  2AD3               	goto	u44_20
  5249     02D2                     u44_21:
  5250     02D2  2AC3               	goto	i1l1276
  5251     02D3                     u44_20:
  5252     02D3                     i1l1282:
  5253                           
  5254                           ;scan_botton.c: 71:         TRISA = TRISA >> 1;
  5255     02D3  3611               	lsrf	17,w	;volatile
  5256     02D4  0091               	movwf	17	;volatile
  5257                           
  5258                           ;scan_botton.c: 72:         mask = mask >> 1;
  5259     02D5  3671               	lsrf	polling_func@mask,w
  5260     02D6  00F1               	movwf	polling_func@mask
  5261     02D7                     i1l181:	
  5262                           ;scan_botton.c: 73:     }
  5263                           
  5264                           
  5265                           ;scan_botton.c: 59:     while (mask)
  5266     02D7  0871               	movf	polling_func@mask,w
  5267     02D8  1D03               	btfss	3,2
  5268     02D9  2ADB               	goto	u45_21
  5269     02DA  2ADC               	goto	u45_20
  5270     02DB                     u45_21:
  5271     02DB  2AC0               	goto	i1l1274
  5272     02DC                     u45_20:
  5273     02DC                     i1l186:
  5274     02DC  0008               	return
  5275     02DD                     __end_of_polling_func:
  5276                           
  5277                           	psect	text13
  5278     0360                     __ptext13:	
  5279 ;; *************** function _long_click_func *****************
  5280 ;; Defined at:
  5281 ;;		line 99 in file "scan_botton.c"
  5282 ;; Parameters:    Size  Location     Type
  5283 ;;		None
  5284 ;; Auto vars:     Size  Location     Type
  5285 ;;		None
  5286 ;; Return value:  Size  Location     Type
  5287 ;;                  1    wreg      void 
  5288 ;; Registers used:
  5289 ;;		wreg, fsr0l, fsr0h, status,2, pclath
  5290 ;; Tracked objects:
  5291 ;;		On entry : 0/0
  5292 ;;		On exit  : 0/0
  5293 ;;		Unchanged: 0/0
  5294 ;; Data sizes:     COMMON   BANK0   BANK1   BANK2   BANK3   BANK4   BANK5   BANK6
  5295 ;;      Params:         0       0       0       0       0       0       0       0
  5296 ;;      Locals:         0       0       0       0       0       0       0       0
  5297 ;;      Temps:          0       0       0       0       0       0       0       0
  5298 ;;      Totals:         0       0       0       0       0       0       0       0
  5299 ;;Total ram usage:        0 bytes
  5300 ;; Hardware stack levels used: 1
  5301 ;; This function calls:
  5302 ;;		Nothing
  5303 ;; This function is called by:
  5304 ;;		_scan_func
  5305 ;; This function uses a non-reentrant model
  5306 ;;
  5307                           
  5308     0360                     _long_click_func:	
  5309                           ;psect for function _long_click_func
  5310                           
  5311     0360                     i1l1284:	
  5312                           ;incstack = 0
  5313                           ; Regs used in _long_click_func: [wreg-fsr0h+status,2+pclath]
  5314                           
  5315                           
  5316                           ;scan_botton.c: 101:     seg_buffer[3] = _table_encoded[15];
  5317     0360  3093               	movlw	low ((__table_encoded+15)| (0+32768))
  5318     0361  0084               	movwf	4
  5319     0362  3083               	movlw	high ((__table_encoded+15)| (0+32768))
  5320     0363  0085               	movwf	5
  5321     0364  0800               	movf	0,w	;code access
  5322     0365  0020               	movlb	0	; select bank0
  5323     0366  00B0               	movwf	_seg_buffer+3
  5324     0367                     i1l1286:
  5325                           
  5326                           ;scan_botton.c: 102:     seg_buffer[1] = _table_encoded[key_buffer&0x0f];
  5327     0367  0879               	movf	_key_buffer,w
  5328     0368  390F               	andlw	15
  5329     0369  3E84               	addlw	low (__table_encoded| (0+32768))
  5330     036A  0084               	movwf	4
  5331     036B  3083               	movlw	high (__table_encoded| (0+32768))
  5332     036C  1803               	skipnc
  5333     036D  3E01               	addlw	1
  5334     036E  0085               	movwf	5
  5335     036F  0800               	movf	0,w	;code access
  5336     0370  00AE               	movwf	_seg_buffer+1
  5337     0371                     i1l198:
  5338     0371  0008               	return
  5339     0372                     __end_of_long_click_func:
  5340                           
  5341                           	psect	text14
  5342     028F                     __ptext14:	
  5343 ;; *************** function _double_click_func *****************
  5344 ;; Defined at:
  5345 ;;		line 84 in file "scan_botton.c"
  5346 ;; Parameters:    Size  Location     Type
  5347 ;;		None
  5348 ;; Auto vars:     Size  Location     Type
  5349 ;;  pre_key         1    1[COMMON] unsigned char 
  5350 ;; Return value:  Size  Location     Type
  5351 ;;                  1    wreg      void 
  5352 ;; Registers used:
  5353 ;;		wreg, fsr0l, fsr0h, status,2, status,0, pclath, cstack
  5354 ;; Tracked objects:
  5355 ;;		On entry : 0/0
  5356 ;;		On exit  : 0/0
  5357 ;;		Unchanged: 0/0
  5358 ;; Data sizes:     COMMON   BANK0   BANK1   BANK2   BANK3   BANK4   BANK5   BANK6
  5359 ;;      Params:         0       0       0       0       0       0       0       0
  5360 ;;      Locals:         1       0       0       0       0       0       0       0
  5361 ;;      Temps:          1       0       0       0       0       0       0       0
  5362 ;;      Totals:         2       0       0       0       0       0       0       0
  5363 ;;Total ram usage:        2 bytes
  5364 ;; Hardware stack levels used: 1
  5365 ;; Hardware stack levels required when called: 1
  5366 ;; This function calls:
  5367 ;;		_single_click_func
  5368 ;; This function is called by:
  5369 ;;		_scan_func
  5370 ;; This function uses a non-reentrant model
  5371 ;;
  5372                           
  5373     028F                     _double_click_func:	
  5374                           ;psect for function _double_click_func
  5375                           
  5376     028F                     i1l1290:	
  5377                           ;incstack = 0
  5378                           ; Regs used in _double_click_func: [wreg-fsr0h+status,2+status,0+pclath+cstack]
  5379                           
  5380                           
  5381                           ;scan_botton.c: 86:     unsigned char pre_key = (key_buffer&0xf0) >> 4;
  5382     028F  0879               	movf	_key_buffer,w
  5383     0290  00F0               	movwf	??_double_click_func
  5384     0291  3004               	movlw	4
  5385     0292                     u46_25:
  5386     0292  36F0               	lsrf	??_double_click_func,f
  5387     0293  0B89               	decfsz	9,f
  5388     0294  2A92               	goto	u46_25
  5389     0295  0870               	movf	??_double_click_func,w
  5390     0296  390F               	andlw	15
  5391     0297  00F1               	movwf	double_click_func@pre_key
  5392                           
  5393                           ;scan_botton.c: 87:     if (pre_key != (key_buffer&0x0f))
  5394     0298  300F               	movlw	15
  5395     0299  0579               	andwf	_key_buffer,w
  5396     029A  00F0               	movwf	??_double_click_func
  5397     029B  0870               	movf	??_double_click_func,w
  5398     029C  0671               	xorwf	double_click_func@pre_key,w
  5399     029D  1903               	skipnz
  5400     029E  2AA0               	goto	u47_21
  5401     029F  2AA1               	goto	u47_20
  5402     02A0                     u47_21:
  5403     02A0  2AA5               	goto	i1l1296
  5404     02A1                     u47_20:
  5405     02A1                     i1l1292:
  5406                           
  5407                           ;scan_botton.c: 88:     {;scan_botton.c: 89:         single_click_func();
  5408     02A1  3183  2372  3182   	fcall	_single_click_func
  5409     02A4  2AB6               	goto	i1l195
  5410     02A5                     i1l1296:
  5411                           
  5412                           ;scan_botton.c: 93:     seg_buffer[3] = _table_encoded[16];
  5413     02A5  3094               	movlw	low ((__table_encoded+16)| (0+32768))
  5414     02A6  0084               	movwf	4
  5415     02A7  3083               	movlw	high ((__table_encoded+16)| (0+32768))
  5416     02A8  0085               	movwf	5
  5417     02A9  0800               	movf	0,w	;code access
  5418     02AA  0020               	movlb	0	; select bank0
  5419     02AB  00B0               	movwf	_seg_buffer+3
  5420     02AC                     i1l1298:
  5421                           
  5422                           ;scan_botton.c: 94:     seg_buffer[2] = _table_encoded[key_buffer&0x0f];
  5423     02AC  0879               	movf	_key_buffer,w
  5424     02AD  390F               	andlw	15
  5425     02AE  3E84               	addlw	low (__table_encoded| (0+32768))
  5426     02AF  0084               	movwf	4
  5427     02B0  3083               	movlw	high (__table_encoded| (0+32768))
  5428     02B1  1803               	skipnc
  5429     02B2  3E01               	addlw	1
  5430     02B3  0085               	movwf	5
  5431     02B4  0800               	movf	0,w	;code access
  5432     02B5  00AF               	movwf	_seg_buffer+2
  5433     02B6                     i1l195:
  5434     02B6  0008               	return
  5435     02B7                     __end_of_double_click_func:
  5436                           
  5437                           	psect	text15
  5438     0372                     __ptext15:	
  5439 ;; *************** function _single_click_func *****************
  5440 ;; Defined at:
  5441 ;;		line 77 in file "scan_botton.c"
  5442 ;; Parameters:    Size  Location     Type
  5443 ;;		None
  5444 ;; Auto vars:     Size  Location     Type
  5445 ;;		None
  5446 ;; Return value:  Size  Location     Type
  5447 ;;                  1    wreg      void 
  5448 ;; Registers used:
  5449 ;;		wreg, fsr0l, fsr0h, status,2, pclath
  5450 ;; Tracked objects:
  5451 ;;		On entry : 0/0
  5452 ;;		On exit  : 0/0
  5453 ;;		Unchanged: 0/0
  5454 ;; Data sizes:     COMMON   BANK0   BANK1   BANK2   BANK3   BANK4   BANK5   BANK6
  5455 ;;      Params:         0       0       0       0       0       0       0       0
  5456 ;;      Locals:         0       0       0       0       0       0       0       0
  5457 ;;      Temps:          0       0       0       0       0       0       0       0
  5458 ;;      Totals:         0       0       0       0       0       0       0       0
  5459 ;;Total ram usage:        0 bytes
  5460 ;; Hardware stack levels used: 1
  5461 ;; This function calls:
  5462 ;;		Nothing
  5463 ;; This function is called by:
  5464 ;;		_scan_func
  5465 ;;		_double_click_func
  5466 ;; This function uses a non-reentrant model
  5467 ;;
  5468                           
  5469     0372                     _single_click_func:	
  5470                           ;psect for function _single_click_func
  5471                           
  5472     0372                     i1l1264:	
  5473                           ;incstack = 0
  5474                           ; Regs used in _single_click_func: [wreg-fsr0h+status,2+pclath]
  5475                           
  5476                           
  5477                           ;scan_botton.c: 79:     seg_buffer[3] = _table_encoded[14];
  5478     0372  3092               	movlw	low ((__table_encoded+14)| (0+32768))
  5479     0373  0084               	movwf	4
  5480     0374  3083               	movlw	high ((__table_encoded+14)| (0+32768))
  5481     0375  0085               	movwf	5
  5482     0376  0800               	movf	0,w	;code access
  5483     0377  0020               	movlb	0	; select bank0
  5484     0378  00B0               	movwf	_seg_buffer+3
  5485     0379                     i1l1266:
  5486                           
  5487                           ;scan_botton.c: 80:     seg_buffer[0] = _table_encoded[key_buffer&0x0f];
  5488     0379  0879               	movf	_key_buffer,w
  5489     037A  390F               	andlw	15
  5490     037B  3E84               	addlw	low (__table_encoded| (0+32768))
  5491     037C  0084               	movwf	4
  5492     037D  3083               	movlw	high (__table_encoded| (0+32768))
  5493     037E  1803               	skipnc
  5494     037F  3E01               	addlw	1
  5495     0380  0085               	movwf	5
  5496     0381  0800               	movf	0,w	;code access
  5497     0382  00AD               	movwf	_seg_buffer
  5498     0383                     i1l191:
  5499     0383  0008               	return
  5500     0384                     __end_of_single_click_func:
  5501     007E                     btemp	set	126	;btemp
  5502     007E                     int$flags	set	126
  5503     007E                     wtemp0	set	126
  5504                           
  5505                           	psect	config
  5506                           
  5507                           ;Config register CONFIG1 @ 0x8007
  5508                           ;	External Oscillator mode selection bits
  5509                           ;	FEXTOSC = OFF, Oscillator not enabled
  5510                           ;	Power-up default value for COSC bits
  5511                           ;	RSTOSC = HFINT1, HFINTOSC (1MHz)
  5512                           ;	Clock Out Enable bit
  5513                           ;	CLKOUTEN = OFF, CLKOUT function is disabled; i/o or oscillator function on OSC2
  5514                           ;	Clock Switch Enable bit
  5515                           ;	CSWEN = ON, Writing to NOSC and NDIV is allowed
  5516                           ;	Fail-Safe Clock Monitor Enable bit
  5517                           ;	FCMEN = OFF, FSCM timer disabled
  5518     8007                     	org	32775
  5519     8007  1FEC               	dw	8172
  5520                           
  5521                           ;Config register CONFIG2 @ 0x8008
  5522                           ;	Master Clear Enable bit
  5523                           ;	MCLRE = ON, MCLR pin is Master Clear function
  5524                           ;	Power-up Timer Enable bit
  5525                           ;	PWRTE = OFF, PWRT disabled
  5526                           ;	Low-Power BOR enable bit
  5527                           ;	LPBOREN = OFF, ULPBOR disabled
  5528                           ;	Brown-out reset enable bits
  5529                           ;	BOREN = ON, Brown-out Reset Enabled, SBOREN bit is ignored
  5530                           ;	Brown-out Reset Voltage Selection
  5531                           ;	BORV = LO, Brown-out Reset Voltage (VBOR) set to 1.9V on LF, and 2.45V on F Devices
  5532                           ;	Zero-cross detect disable
  5533                           ;	ZCD = OFF, Zero-cross detect circuit is disabled at POR.
  5534                           ;	Peripheral Pin Select one-way control
  5535                           ;	PPS1WAY = OFF, The PPSLOCK bit can be set and cleared repeatedly by software
  5536                           ;	Stack Overflow/Underflow Reset Enable bit
  5537                           ;	STVREN = ON, Stack Overflow or Underflow will cause a reset
  5538                           ;	Background Debugger
  5539                           ;	DEBUG = 0x1, unprogrammed default
  5540     8008                     	org	32776
  5541     8008  37FF               	dw	14335
  5542                           
  5543                           ;Config register CONFIG3 @ 0x8009
  5544                           ;	WDT Period Select bits
  5545                           ;	WDTCPS = WDTCPS_31, Divider ratio 1:65536; software control of WDTPS
  5546                           ;	WDT operating mode
  5547                           ;	WDTE = SWDTEN, WDT enabled/disabled by SWDTEN bit in WDTCON0
  5548                           ;	WDT Window Select bits
  5549                           ;	WDTCWS = WDTCWS_7, window always open (100%); software control; keyed access not requi
      +                          red
  5550                           ;	WDT input clock selector
  5551                           ;	WDTCCS = SC, Software Control
  5552     8009                     	org	32777
  5553     8009  3FBF               	dw	16319
  5554                           
  5555                           ;Config register CONFIG4 @ 0x800A
  5556                           ;	UserNVM self-write protection bits
  5557                           ;	WRT = WRT_upper, 0x0000 to 0x01FF write protected
  5558                           ;	Scanner Enable bit
  5559                           ;	SCANE = not_available, Scanner module is not available for use
  5560                           ;	Low Voltage Programming Enable bit
  5561                           ;	LVP = ON, Low Voltage programming enabled. MCLR/Vpp pin function is MCLR.
  5562     800A                     	org	32778
  5563     800A  2FFE               	dw	12286
  5564                           
  5565                           ;Config register CONFIG5 @ 0x800B
  5566                           ;	UserNVM Program memory code protection bit
  5567                           ;	CP = OFF, Program Memory code protection disabled
  5568                           ;	DataNVM code protection bit
  5569                           ;	CPD = OFF, Data EEPROM code protection disabled
  5570     800B                     	org	32779
  5571     800B  3FFF               	dw	16383

Data Sizes:
    Strings     0
    Constant    65
    Data        0
    BSS         11
    Persistent  33
    Stack       0

Auto Spaces:
    Space          Size  Autos    Used
    COMMON           14      8      11
    BANK0            80     13      22
    BANK1            80      0       0
    BANK2            80      0       0
    BANK3            80      0       0
    BANK4            80      0       0
    BANK5            80      0       0
    BANK6            16      0       0

Pointer List with Targets:

    None.

Critical Paths under _main in COMMON

    _store_seg_buffer->_store_eeprom_func
    _seg_startup_anime->___awmod
    _load_seg_buffer->_load_from_eeprom_func

Critical Paths under _irs_routine in COMMON

    _irs_routine->_scan_func
    _scan_func->_double_click_func
    _scan_func->_polling_func

Critical Paths under _main in BANK0

    _main->_seg_startup_anime
    _seg_startup_anime->___awmod
    _seg_startup_anime->___wmul

Critical Paths under _irs_routine in BANK0

    None.

Critical Paths under _main in BANK1

    None.

Critical Paths under _irs_routine in BANK1

    None.

Critical Paths under _main in BANK2

    None.

Critical Paths under _irs_routine in BANK2

    None.

Critical Paths under _main in BANK3

    None.

Critical Paths under _irs_routine in BANK3

    None.

Critical Paths under _main in BANK4

    None.

Critical Paths under _irs_routine in BANK4

    None.

Critical Paths under _main in BANK5

    None.

Critical Paths under _irs_routine in BANK5

    None.

Critical Paths under _main in BANK6

    None.

Critical Paths under _irs_routine in BANK6

    None.

Call Graph Tables:

 ---------------------------------------------------------------------------------
 (Depth) Function   	        Calls       Base Space   Used Autos Params    Refs
 ---------------------------------------------------------------------------------
 (0) _main                                                 3     3      0    2178
                                             10 BANK0      3     3      0
                    _load_seg_buffer
                _scan_touch_key_func
                  _seg_startup_anime
                   _store_seg_buffer
 ---------------------------------------------------------------------------------
 (1) _store_seg_buffer                                     0     0      0     370
                  _store_eeprom_func
 ---------------------------------------------------------------------------------
 (2) _store_eeprom_func                                    3     1      2     370
                                              3 COMMON     3     1      2
 ---------------------------------------------------------------------------------
 (1) _seg_startup_anime                                    8     6      2    1152
                                              2 BANK0      8     6      2
                            ___awmod
                             ___wmul
 ---------------------------------------------------------------------------------
 (2) ___wmul                                               6     2      4     316
                                              3 COMMON     4     0      4
                                              0 BANK0      2     2      0
 ---------------------------------------------------------------------------------
 (2) ___awmod                                              7     3      4     613
                                              3 COMMON     5     1      4
                                              0 BANK0      2     2      0
 ---------------------------------------------------------------------------------
 (1) _scan_touch_key_func                                 11     9      2     209
                                              3 COMMON     4     2      2
                                              0 BANK0      7     7      0
 ---------------------------------------------------------------------------------
 (1) _load_seg_buffer                                      0     0      0     348
              _load_from_eeprom_func
 ---------------------------------------------------------------------------------
 (2) _load_from_eeprom_func                                2     0      2     348
                                              3 COMMON     2     0      2
 ---------------------------------------------------------------------------------
 Estimated maximum stack depth 2
 ---------------------------------------------------------------------------------
 (Depth) Function   	        Calls       Base Space   Used Autos Params    Refs
 ---------------------------------------------------------------------------------
 (3) _irs_routine                                          0     0      0     159
                          _scan_func
                   _seg_display_func
 ---------------------------------------------------------------------------------
 (4) _seg_display_func                                     0     0      0       0
 ---------------------------------------------------------------------------------
 (4) _scan_func                                            1     1      0     159
                                              2 COMMON     1     1      0
                  _double_click_func
                    _long_click_func
                       _polling_func
                  _single_click_func
 ---------------------------------------------------------------------------------
 (5) _polling_func                                         2     2      0     136
                                              0 COMMON     2     2      0
 ---------------------------------------------------------------------------------
 (5) _long_click_func                                      0     0      0       0
 ---------------------------------------------------------------------------------
 (5) _double_click_func                                    2     2      0      23
                                              0 COMMON     2     2      0
                  _single_click_func
 ---------------------------------------------------------------------------------
 (5) _single_click_func                                    0     0      0       0
 ---------------------------------------------------------------------------------
 Estimated maximum stack depth 5
 ---------------------------------------------------------------------------------

 Call Graph Graphs:

 _main (ROOT)
   _load_seg_buffer
     _load_from_eeprom_func
   _scan_touch_key_func
   _seg_startup_anime
     ___awmod
     ___wmul
   _store_seg_buffer
     _store_eeprom_func

 _irs_routine (ROOT)
   _scan_func
     _double_click_func
       _single_click_func
     _long_click_func
     _polling_func
     _single_click_func
   _seg_display_func

 Address spaces:
Name               Size   Autos  Total    Cost      Usage
BIGRAM             1F0      0       0       0        0.0%
EEDATA             100      0       0       0        0.0%
NULL                 0      0       0       0        0.0%
CODE                 0      0       0       0        0.0%
BITCOMMON            E      0       0       1        0.0%
BITSFR0              0      0       0       1        0.0%
SFR0                 0      0       0       1        0.0%
COMMON               E      8       B       2       78.6%
BITSFR1              0      0       0       2        0.0%
SFR1                 0      0       0       2        0.0%
BITSFR2              0      0       0       3        0.0%
SFR2                 0      0       0       3        0.0%
STACK                0      0       0       3        0.0%
BITSFR3              0      0       0       4        0.0%
SFR3                 0      0       0       4        0.0%
ABS                  0      0      21       4        0.0%
BITBANK0            50      0       0       5        0.0%
BITSFR4              0      0       0       5        0.0%
SFR4                 0      0       0       5        0.0%
BANK0               50      D      16       6       27.5%
BITSFR5              0      0       0       6        0.0%
SFR5                 0      0       0       6        0.0%
BITBANK1            50      0       0       7        0.0%
BITSFR6              0      0       0       7        0.0%
SFR6                 0      0       0       7        0.0%
BANK1               50      0       0       8        0.0%
BITSFR7              0      0       0       8        0.0%
SFR7                 0      0       0       8        0.0%
BITBANK2            50      0       0       9        0.0%
BITSFR8              0      0       0       9        0.0%
SFR8                 0      0       0       9        0.0%
BANK2               50      0       0      10        0.0%
BITSFR9              0      0       0      10        0.0%
SFR9                 0      0       0      10        0.0%
BITBANK3            50      0       0      11        0.0%
BITSFR10             0      0       0      11        0.0%
SFR10                0      0       0      11        0.0%
BANK3               50      0       0      12        0.0%
BITSFR11             0      0       0      12        0.0%
SFR11                0      0       0      12        0.0%
BITBANK4            50      0       0      13        0.0%
BITSFR12             0      0       0      13        0.0%
SFR12                0      0       0      13        0.0%
BANK4               50      0       0      14        0.0%
BITSFR13             0      0       0      14        0.0%
SFR13                0      0       0      14        0.0%
BITBANK5            50      0       0      15        0.0%
BITSFR14             0      0       0      15        0.0%
SFR14                0      0       0      15        0.0%
BANK5               50      0       0      16        0.0%
BITSFR15             0      0       0      16        0.0%
SFR15                0      0       0      16        0.0%
BITBANK6            10      0       0      17        0.0%
BITSFR16             0      0       0      17        0.0%
SFR16                0      0       0      17        0.0%
BANK6               10      0       0      18        0.0%
BITSFR17             0      0       0      18        0.0%
SFR17                0      0       0      18        0.0%
BITSFR18             0      0       0      19        0.0%
SFR18                0      0       0      19        0.0%
DATA                 0      0      21      19        0.0%
BITSFR19             0      0       0      20        0.0%
SFR19                0      0       0      20        0.0%
BITSFR20             0      0       0      21        0.0%
SFR20                0      0       0      21        0.0%
BITSFR21             0      0       0      22        0.0%
SFR21                0      0       0      22        0.0%
BITSFR22             0      0       0      23        0.0%
SFR22                0      0       0      23        0.0%
BITSFR23             0      0       0      24        0.0%
SFR23                0      0       0      24        0.0%
BITSFR24             0      0       0      25        0.0%
SFR24                0      0       0      25        0.0%
BITSFR25             0      0       0      26        0.0%
SFR25                0      0       0      26        0.0%
BITSFR26             0      0       0      27        0.0%
SFR26                0      0       0      27        0.0%
BITSFR27             0      0       0      28        0.0%
SFR27                0      0       0      28        0.0%
BITSFR28             0      0       0      29        0.0%
SFR28                0      0       0      29        0.0%
BITSFR29             0      0       0      30        0.0%
SFR29                0      0       0      30        0.0%
BITSFR30             0      0       0      31        0.0%
SFR30                0      0       0      31        0.0%
BITSFR31             0      0       0      32        0.0%
SFR31                0      0       0      32        0.0%


Microchip Technology PIC Macro Assembler V2.41 build 20230208172133 
Symbol Table                                                                                   Mon Jul 17 16:32:41 2023

             _seg_display_func 0234                             l85 0093            ___wmul@multiplicand 0075  
              _long_click_func 0360                            l122 0180                            l203 00CB  
                          l205 00CD                            l209 0121                            l430 0333  
                          l272 039D                            l432 0348                            l266 035B  
                          l275 0301                            l269 035F                            l278 0326  
                          l596 0233                            u480 035F                            u481 035E  
                          u740 00D1                            u741 00D0                            u750 00E9  
                          u910 020C                            u830 032E                            u751 00E8  
                          u911 020B                            u831 032D                            u760 0108  
                          u920 0216                            u761 0107                            u921 0215  
                          u905 0200                            u770 011D                            u771 011C  
                          u755 00E5                            u940 0225                            u860 0343  
                          u765 0104                            u941 0224                            u925 0212  
                          u861 0342                            u845 0334                            u950 022A  
                          u870 01E6                            u951 0229                            u935 021B  
                          u871 01E5                            u855 0339                            u880 01F1  
                          u960 0180                            u881 01F0                            u961 017F  
                          u890 01FC                            u970 007F                            u891 01FB  
                          u971 007E                            u980 008F                            u965 017C  
                          u981 008E                            u990 009B                            u991 009A  
                 ___awmod@sign 0021                            wreg 0009                           l1310 0351  
                         l1302 034A                           l1320 0359                           l1312 0353  
                         l1304 034D                           l1330 039B                           l1322 035A  
                         l1314 0354                           l1306 034E                           l1332 039C  
                         l1324 0395                           l1316 0355                           l1308 034F  
                         l1326 0397                           l1502 0302                           l1318 0357  
                         l1328 0399                           l1600 032E                           l1504 02DD  
                         l1610 01E0                           l1602 0338                           l1460 00B1  
                         l1620 01F1                           l1612 01E2                           l1604 033D  
                         l1700 0056                           l1462 00B1                           l1630 0208  
                         l1622 01F6                           l1614 01E6                           l1606 0343  
                         l1710 0071                           l1702 005D                           l1464 00B6  
                         l1632 020C                           l1624 01FC                           l1640 0225  
                         l1616 01EB                           l1720 0089                           l1712 0071  
                         l1704 0063                           l1474 00BE                           l1466 00B8  
                         l1642 022A                           l1634 0216                           l1626 01FF  
                         l1618 01ED                           l1650 0133                           l1722 008F  
                         l1714 0079                           l1706 0069                           l1492 010E  
                         l1484 00D1                           l1476 00C0                           l1468 00BB  
                         l1644 022F                           l1636 021A                           l1628 0204  
                         l1652 0136                           l1724 009B                           l1716 007F  
                         l1708 006F                           l1660 002C                           l1494 0113  
                         l1486 00E9                           l1478 00C8                           l1638 021F  
                         l1654 0164                           l1726 009E                           l1718 0082  
                         l1670 0034                           l1662 002F                           l1496 0117  
                         l1488 0108                           l1656 016D                           l1648 0122  
                         l1728 00A5                           l1680 0041                           l1672 0036  
                         l1664 0030                           l1498 011D                           l1658 0172  
                         l1690 0047                           l1682 0042                           l1674 0039  
                         l1666 0032                           l1596 0327                           l1692 0048  
                         l1684 0044                           l1676 003B                           l1668 0033  
                         l1598 032A                           l1694 004A                           l1686 0045  
                         l1678 003E                           l1696 004C                           l1688 0046  
                         l1698 004E                           u1007 00A9                           u1017 0168  
                         _LATB 0017                           _LATC 0018                           i1l78 0018  
                         _WPUA 0F39                           _main 002C                           _pcnt 0034  
                         _rcnt 0035                           fsr0h 0005                           fsr1h 0007  
                         indf0 0000                           fsr0l 0004                           indf1 0001  
                         fsr1l 0006                           btemp 007E                           start 001A  
                        _ADACQ 009D                          ?_main 0070                          _ADPRE 009C  
              __end_of___awmod 0234                          i1l116 0262                          i1l181 02D7  
                        i1l173 01DF                          i1l191 0383                          i1l183 02CE  
                        i1l186 02DC                          i1l195 02B6                          i1l198 0371  
                        _TMR0H 001D                          _TMR0L 001C                          u43_20 02C9  
                        u43_21 02C8                          _PORTA 000C                          u44_20 02D3  
                        u44_21 02D2                          u45_20 02DC                          u45_21 02DB  
                        u62_20 0246                          u62_21 0245                          u46_25 0292  
                        u70_25 01BC                          u47_20 02A1                          u71_20 01CB  
                        u63_20 0257                          u47_21 02A0                          u71_21 01CA  
                        u63_21 0256                          u72_20 01DA                          u64_20 0189  
                        u72_21 01D9                          u64_21 0188                          u65_20 0190  
                        u65_21 018F                          _TRISA 0011                          _TRISB 0012  
                        _TRISC 0013                          u66_20 019A                          u66_21 0199  
                        u67_20 01A0                          u67_21 019F                          u68_20 01AD  
                        u68_21 01AC                          u69_20 01B9                          u69_21 01B8  
                        u78_20 000B                          u78_21 000A        ??_load_from_eeprom_func 0075  
                        _w_tmp 0031              _single_click_func 0372                          status 0003  
                        wtemp0 007E             ?_single_click_func 0070                _load_seg_buffer 0302  
              __initialization 001C        __end_of_long_click_func 0372                   __end_of_main 00B1  
          ??_single_click_func 0070                   ?_irs_routine 0070                         ??_main 002A  
               __table_encoded 0384                         _ADCON1 0094                         _ADRESH 008D  
                       _ADRESL 008C      __end_of_single_click_func 0384                         _ANSELA 0F38  
                       _T0CON0 001E                         _T0CON1 001F                         i1l1400 0257  
                       i1l1410 0193                         i1l1402 0181                         i1l1412 019A  
                       i1l1420 01A6                         i1l1404 0184                         i1l1270 02B7  
                       i1l1430 01C5                         i1l1422 01AD                         i1l1414 019B  
                       i1l1406 0189                         i1l1510 000E                         i1l1264 0372  
                       i1l1280 02CA                         i1l1272 02BE                         i1l1432 01CB  
                       i1l1440 01D4                         i1l1424 01B0                         i1l1408 0190  
                       i1l1512 0011                         i1l1266 0379                         i1l1290 028F  
                       i1l1282 02D3                         i1l1274 02C0                         i1l1434 01CE  
                       i1l1442 01D5                         i1l1426 01B3                         i1l1418 01A1  
                       i1l1514 0013                         i1l1506 0006                         i1l1292 02A1  
                       i1l1284 0360                         i1l1276 02C3                         i1l1436 01D1  
                       i1l1428 01B9                         i1l1516 0016                         i1l1508 000B  
                       i1l1286 0367                         i1l1446 01DB                         i1l1390 0236  
                       i1l1296 02A5                         i1l1392 0239                         i1l1298 02AC  
                       i1l1394 0240                         i1l1396 0246                         i1l1388 0234  
                       i1l1398 0251              _seg_startup_anime 0122             ?_seg_startup_anime 0022  
      scan_touch_key_func@port 0026            ??_seg_startup_anime 0024                         ___wmul 0327  
                    ??___awmod 0077            _scan_touch_key_func 00B1         __end_of__table_encoded 0395  
              ___awmod@divisor 0073                ___awmod@counter 0020              polling_func@w_tmp 0070  
             _store_seg_buffer 02DD      __end_of_seg_startup_anime 0181           ?_scan_touch_key_func 0073  
     __end_of_seg_display_func 0263        __end_of_load_seg_buffer 0327        __end_of__initialization 0028  
               __pcstackCOMMON 0070               ?_long_click_func 0070               _touch_key_buffer 0033  
        ??_scan_touch_key_func 0075              __table_seg_select 039E                     __pbssBANK0 002D  
            _store_eeprom_func 0349                     __pmaintext 002C             ?_store_eeprom_func 0073  
            _double_click_func 028F                        ?___wmul 0073      scan_touch_key_func@adcres 0024  
           ?_double_click_func 0070                     __pintentry 0004            ??_store_eeprom_func 0075  
          ??_double_click_func 0070             seg_startup_anime@i 0028                        _NVMADRH 081B  
                      _NVMADRL 081A                        _NVMDATL 081C                        _NVMCON2 081F  
    __end_of__table_seg_select 03A2  __end_of_load_from_eeprom_func 039E                      _ADCLKbits 0098  
    __end_of_store_eeprom_func 0360               ?_load_seg_buffer 0070                      _ADPCHbits 009E  
                    _ADREFbits 009A      __end_of_double_click_func 02B7           scan_touch_key_func@i 0020  
                      ___awmod 01E0                     _key_buffer 0079     __end_of_startup_anime_code 028F  
                      __ptext1 02DD                        __ptext2 0349                        __ptext3 0122  
                      __ptext4 0327                        __ptext5 01E0                        __ptext6 00B1  
                      __ptext7 0302                        __ptext8 0395               ___awmod@dividend 0075  
                      _seg_idx 0078              __end_of_scan_func 01E0                     _seg_buffer 002D  
                      main@key 002B           end_of_initialization 0028                  ?_polling_func 0070  
     __end_of_store_seg_buffer 0302              ?_seg_display_func 0070                 ??_polling_func 0070  
           ??_seg_display_func 0070                 __end_of___wmul 0349          store_eeprom_func@addr 0073  
        store_eeprom_func@data 0075            start_initialization 001C         scan_touch_key_func@key 0022  
                     ??___wmul 0077               polling_func@mask 0071    __end_of_scan_touch_key_func 0122  
                  __pbssCOMMON 0078       double_click_func@pre_key 0071                      ___latbits 0001  
                __pcstackBANK0 0020                      __pnvBANK0 0035                       ?___awmod 0073  
                ??_irs_routine 0073           __end_of_polling_func 02DD             _startup_anime_code 0263  
    load_from_eeprom_func@addr 0073                      _scan_func 0181          _load_from_eeprom_func 0395  
                    _seg_flash 0032                 ___wmul@product 0020                       _PIE0bits 0716  
                     _PIR0bits 070C              ?_store_seg_buffer 0070             ??_store_seg_buffer 0076  
                   _ADCON0bits 0093              ___wmul@multiplier 0073            __end_of_irs_routine 001A  
            ??_long_click_func 0070                     ?_scan_func 0070         seg_startup_anime@times 0022  
                     __ptext10 0234                       __ptext11 0181                       __ptext12 02B7  
                     __ptext13 0360                       __ptext14 028F                       __ptext15 0372  
       ?_load_from_eeprom_func 0073                       _curr_key 007A                       int$flags 007E  
                  _irs_routine 0004              ??_load_seg_buffer 0075                     _INTCONbits 000B  
                  _NVMCON1bits 081E                     _FVRCONbits 090C                       intlevel1 0000  
                  ??_scan_func 0072                   _polling_func 02B7                  __pstringtext1 0263  
                __pstringtext2 0384                  __pstringtext3 039E  
